; Listing generated by Microsoft (R) Optimizing Compiler Version 19.31.31104.0 

	TITLE	C:\Users\hansi\Downloads\NDI\Windows\Debug\AGKLibraryCommands.obj
	.686P
	.XMM
	include listing.inc
	.model	flat

INCLUDELIB LIBCMTD
INCLUDELIB OLDNAMES

PUBLIC	?AGKCommand0@@3P6APADI@ZA			; AGKCommand0
PUBLIC	?AGKCommand1@@3P6AXPAD@ZA			; AGKCommand1
PUBLIC	?AGKCommand2@@3P6AMM@ZA				; AGKCommand2
PUBLIC	?AGKCommand3@@3P6AMM@ZA				; AGKCommand3
PUBLIC	?AGKCommand4@@3P6AMM@ZA				; AGKCommand4
PUBLIC	?AGKCommand5@@3P6AMM@ZA				; AGKCommand5
PUBLIC	?AGKCommand6@@3P6AXH@ZA				; AGKCommand6
PUBLIC	?AGKCommand7@@3P6AXMH@ZA			; AGKCommand7
PUBLIC	?AGKCommand8@@3P6AXHHHH@ZA			; AGKCommand8
PUBLIC	?AGKCommand9@@3P6AXH@ZA				; AGKCommand9
PUBLIC	?AGKCommand10@@3P6AXM@ZA			; AGKCommand10
PUBLIC	?AGKCommand11@@3P6AXHH@ZA			; AGKCommand11
PUBLIC	?AGKCommand12@@3P6AXXZA				; AGKCommand12
PUBLIC	?AGKCommand13@@3P6APADXZA			; AGKCommand13
PUBLIC	?AGKCommand14@@3P6AXMMMM@ZA			; AGKCommand14
PUBLIC	?AGKCommand15@@3P6AXHH@ZA			; AGKCommand15
PUBLIC	?AGKCommand16@@3P6AXH@ZA			; AGKCommand16
PUBLIC	?AGKCommand17@@3P6AHXZA				; AGKCommand17
PUBLIC	?AGKCommand18@@3P6AHXZA				; AGKCommand18
PUBLIC	?AGKCommand19@@3P6AXHH@ZA			; AGKCommand19
PUBLIC	?AGKCommand20@@3P6AXII@ZA			; AGKCommand20
PUBLIC	?AGKCommand21@@3P6AHXZA				; AGKCommand21
PUBLIC	?AGKCommand22@@3P6AHXZA				; AGKCommand22
PUBLIC	?AGKCommand23@@3P6AMXZA				; AGKCommand23
PUBLIC	?AGKCommand24@@3P6AMXZA				; AGKCommand24
PUBLIC	?AGKCommand25@@3P6AMXZA				; AGKCommand25
PUBLIC	?AGKCommand26@@3P6AMXZA				; AGKCommand26
PUBLIC	?AGKCommand27@@3P6AMXZA				; AGKCommand27
PUBLIC	?AGKCommand28@@3P6AHXZA				; AGKCommand28
PUBLIC	?AGKCommand29@@3P6AHXZA				; AGKCommand29
PUBLIC	?AGKCommand30@@3P6AHXZA				; AGKCommand30
PUBLIC	?AGKCommand31@@3P6AXI@ZA			; AGKCommand31
PUBLIC	?AGKCommand32@@3P6AXI@ZA			; AGKCommand32
PUBLIC	?AGKCommand33@@3P6AXI@ZA			; AGKCommand33
PUBLIC	?AGKCommand34@@3P6AXI@ZA			; AGKCommand34
PUBLIC	?AGKCommand35@@3P6AXMM@ZA			; AGKCommand35
PUBLIC	?AGKCommand36@@3P6AXM@ZA			; AGKCommand36
PUBLIC	?AGKCommand37@@3P6AXH@ZA			; AGKCommand37
PUBLIC	?AGKCommand38@@3P6AMXZA				; AGKCommand38
PUBLIC	?AGKCommand39@@3P6AMXZA				; AGKCommand39
PUBLIC	?AGKCommand40@@3P6AMXZA				; AGKCommand40
PUBLIC	?AGKCommand41@@3P6AXXZA				; AGKCommand41
PUBLIC	?AGKCommand42@@3P6AXXZA				; AGKCommand42
PUBLIC	?AGKCommand43@@3P6AXM@ZA			; AGKCommand43
PUBLIC	?AGKCommand44@@3P6AXM@ZA			; AGKCommand44
PUBLIC	?AGKCommand45@@3P6AXM@ZA			; AGKCommand45
PUBLIC	?AGKCommand46@@3P6AXM@ZA			; AGKCommand46
PUBLIC	?AGKCommand47@@3P6AXXZA				; AGKCommand47
PUBLIC	?AGKCommand48@@3P6AXXZA				; AGKCommand48
PUBLIC	?AGKCommand49@@3P6AXXZA				; AGKCommand49
PUBLIC	?AGKCommand50@@3P6AXXZA				; AGKCommand50
PUBLIC	?AGKCommand51@@3P6AXXZA				; AGKCommand51
PUBLIC	?AGKCommand52@@3P6AXXZA				; AGKCommand52
PUBLIC	?AGKCommand53@@3P6AXXZA				; AGKCommand53
PUBLIC	?AGKCommand54@@3P6AXH@ZA			; AGKCommand54
PUBLIC	?AGKCommand55@@3P6AMXZA				; AGKCommand55
PUBLIC	?AGKCommand56@@3P6AXXZA				; AGKCommand56
PUBLIC	?AGKCommand57@@3P6AMXZA				; AGKCommand57
PUBLIC	?AGKCommand58@@3P6AHXZA				; AGKCommand58
PUBLIC	?AGKCommand59@@3P6AMXZA				; AGKCommand59
PUBLIC	?AGKCommand60@@3P6AIXZA				; AGKCommand60
PUBLIC	?AGKCommand61@@3P6APADXZA			; AGKCommand61
PUBLIC	?AGKCommand62@@3P6AHXZA				; AGKCommand62
PUBLIC	?AGKCommand63@@3P6APADPBD@ZA			; AGKCommand63
PUBLIC	?AGKCommand64@@3P6APADPBD@ZA			; AGKCommand64
PUBLIC	?AGKCommand65@@3P6APADPBD@ZA			; AGKCommand65
PUBLIC	?AGKCommand66@@3P6APADPBD@ZA			; AGKCommand66
PUBLIC	?AGKCommand67@@3P6APADPBD@ZA			; AGKCommand67
PUBLIC	?AGKCommand68@@3P6AXI@ZA			; AGKCommand68
PUBLIC	?AGKCommand69@@3P6AIXZA				; AGKCommand69
PUBLIC	?AGKCommand70@@3P6AIII@ZA			; AGKCommand70
PUBLIC	?AGKCommand71@@3P6AHH@ZA			; AGKCommand71
PUBLIC	?AGKCommand72@@3P6AXI@ZA			; AGKCommand72
PUBLIC	?AGKCommand73@@3P6AHXZA				; AGKCommand73
PUBLIC	?AGKCommand74@@3P6AHHH@ZA			; AGKCommand74
PUBLIC	?AGKCommand75@@3P6AMMM@ZA			; AGKCommand75
PUBLIC	?AGKCommand76@@3P6AMMM@ZA			; AGKCommand76
PUBLIC	?AGKCommand77@@3P6AXH@ZA			; AGKCommand77
PUBLIC	?AGKCommand78@@3P6AXH@ZA			; AGKCommand78
PUBLIC	?AGKCommand79@@3P6AXH@ZA			; AGKCommand79
PUBLIC	?AGKCommand80@@3P6AXH@ZA			; AGKCommand80
PUBLIC	?AGKCommand81@@3P6AMXZA				; AGKCommand81
PUBLIC	?AGKCommand82@@3P6AIXZA				; AGKCommand82
PUBLIC	?AGKCommand83@@3P6AIXZA				; AGKCommand83
PUBLIC	?AGKCommand84@@3P6AXI@ZA			; AGKCommand84
PUBLIC	?AGKCommand85@@3P6AXI@ZA			; AGKCommand85
PUBLIC	?AGKCommand86@@3P6AXIII@ZA			; AGKCommand86
PUBLIC	?AGKCommand87@@3P6AXIII@ZA			; AGKCommand87
PUBLIC	?AGKCommand88@@3P6APAVcImage@@I@ZA		; AGKCommand88
PUBLIC	?AGKCommand89@@3P6AII@ZA			; AGKCommand89
PUBLIC	?AGKCommand90@@3P6AXIPBDH@ZA			; AGKCommand90
PUBLIC	?AGKCommand91@@3P6AXIPBD@ZA			; AGKCommand91
PUBLIC	?AGKCommand92@@3P6AIPBDH@ZA			; AGKCommand92
PUBLIC	?AGKCommand93@@3P6AIPBD@ZA			; AGKCommand93
PUBLIC	?AGKCommand94@@3P6AXIIPBD@ZA			; AGKCommand94
PUBLIC	?AGKCommand95@@3P6AIIPBD@ZA			; AGKCommand95
PUBLIC	?AGKCommand96@@3P6AXIPBDMMH@ZA			; AGKCommand96
PUBLIC	?AGKCommand97@@3P6AIPBDMMH@ZA			; AGKCommand97
PUBLIC	?AGKCommand98@@3P6AXIIIII@ZA			; AGKCommand98
PUBLIC	?AGKCommand99@@3P6AIIIII@ZA			; AGKCommand99
PUBLIC	?AGKCommand100@@3P6AXIIIII@ZA			; AGKCommand100
PUBLIC	?AGKCommand101@@3P6AIIIII@ZA			; AGKCommand101
PUBLIC	?AGKCommand102@@3P6AII@ZA			; AGKCommand102
PUBLIC	?AGKCommand103@@3P6AXI@ZA			; AGKCommand103
PUBLIC	?AGKCommand104@@3P6AXXZA			; AGKCommand104
PUBLIC	?AGKCommand105@@3P6AMI@ZA			; AGKCommand105
PUBLIC	?AGKCommand106@@3P6AMI@ZA			; AGKCommand106
PUBLIC	?AGKCommand107@@3P6AXII@ZA			; AGKCommand107
PUBLIC	?AGKCommand108@@3P6AXII@ZA			; AGKCommand108
PUBLIC	?AGKCommand109@@3P6AXII@ZA			; AGKCommand109
PUBLIC	?AGKCommand110@@3P6AXII@ZA			; AGKCommand110
PUBLIC	?AGKCommand111@@3P6AXIIHHHH@ZA			; AGKCommand111
PUBLIC	?AGKCommand112@@3P6AXIHHH@ZA			; AGKCommand112
PUBLIC	?AGKCommand113@@3P6AXIPBD@ZA			; AGKCommand113
PUBLIC	?AGKCommand114@@3P6AIMMMM@ZA			; AGKCommand114
PUBLIC	?AGKCommand115@@3P6AXIMMMM@ZA			; AGKCommand115
PUBLIC	?AGKCommand116@@3P6APADI@ZA			; AGKCommand116
PUBLIC	?AGKCommand117@@3P6AIIHHHH@ZA			; AGKCommand117
PUBLIC	?AGKCommand118@@3P6AXIIHHHH@ZA			; AGKCommand118
PUBLIC	?AGKCommand119@@3P6AXIHH@ZA			; AGKCommand119
PUBLIC	?AGKCommand120@@3P6AIXZA			; AGKCommand120
PUBLIC	?AGKCommand121@@3P6AIXZA			; AGKCommand121
PUBLIC	?AGKCommand122@@3P6AIXZA			; AGKCommand122
PUBLIC	?AGKCommand123@@3P6AIXZA			; AGKCommand123
PUBLIC	?AGKCommand124@@3P6AIXZA			; AGKCommand124
PUBLIC	?AGKCommand125@@3P6AIXZA			; AGKCommand125
PUBLIC	?AGKCommand126@@3P6APADI@ZA			; AGKCommand126
PUBLIC	?AGKCommand127@@3P6AIPBDH@ZA			; AGKCommand127
PUBLIC	?AGKCommand128@@3P6AXIM@ZA			; AGKCommand128
PUBLIC	?AGKCommand129@@3P6AXH@ZA			; AGKCommand129
PUBLIC	?AGKCommand130@@3P6APAVcSprite@@I@ZA		; AGKCommand130
PUBLIC	?AGKCommand131@@3P6AII@ZA			; AGKCommand131
PUBLIC	?AGKCommand132@@3P6AXII@ZA			; AGKCommand132
PUBLIC	?AGKCommand133@@3P6AII@ZA			; AGKCommand133
PUBLIC	?AGKCommand134@@3P6AIPBD@ZA			; AGKCommand134
PUBLIC	?AGKCommand135@@3P6AXIPBD@ZA			; AGKCommand135
PUBLIC	?AGKCommand136@@3P6AXII@ZA			; AGKCommand136
PUBLIC	?AGKCommand137@@3P6AII@ZA			; AGKCommand137
PUBLIC	?AGKCommand138@@3P6AXI@ZA			; AGKCommand138
PUBLIC	?AGKCommand139@@3P6AIXZA			; AGKCommand139
PUBLIC	?AGKCommand140@@3P6AII@ZA			; AGKCommand140
PUBLIC	?AGKCommand141@@3P6AXI@ZA			; AGKCommand141
PUBLIC	?AGKCommand142@@3P6AXXZA			; AGKCommand142
PUBLIC	?AGKCommand143@@3P6AXII@ZA			; AGKCommand143
PUBLIC	?AGKCommand144@@3P6AXIIH@ZA			; AGKCommand144
PUBLIC	?AGKCommand145@@3P6AXIIH@ZA			; AGKCommand145
PUBLIC	?AGKCommand146@@3P6AXIMMMMMMMM@ZA		; AGKCommand146
PUBLIC	?AGKCommand147@@3P6AXI@ZA			; AGKCommand147
PUBLIC	?AGKCommand148@@3P6AXIMM@ZA			; AGKCommand148
PUBLIC	?AGKCommand149@@3P6AXIMM@ZA			; AGKCommand149
PUBLIC	?AGKCommand150@@3P6AXIM@ZA			; AGKCommand150
PUBLIC	?AGKCommand151@@3P6AXIM@ZA			; AGKCommand151
PUBLIC	?AGKCommand152@@3P6AXIM@ZA			; AGKCommand152
PUBLIC	?AGKCommand153@@3P6AXIM@ZA			; AGKCommand153
PUBLIC	?AGKCommand154@@3P6AXIH@ZA			; AGKCommand154
PUBLIC	?AGKCommand155@@3P6AXIHH@ZA			; AGKCommand155
PUBLIC	?AGKCommand156@@3P6AXIH@ZA			; AGKCommand156
PUBLIC	?AGKCommand157@@3P6AXIH@ZA			; AGKCommand157
PUBLIC	?AGKCommand158@@3P6AXIH@ZA			; AGKCommand158
PUBLIC	?AGKCommand159@@3P6AMI@ZA			; AGKCommand159
PUBLIC	?AGKCommand160@@3P6AMI@ZA			; AGKCommand160
PUBLIC	?AGKCommand161@@3P6AMI@ZA			; AGKCommand161
PUBLIC	?AGKCommand162@@3P6AMI@ZA			; AGKCommand162
PUBLIC	?AGKCommand163@@3P6AMI@ZA			; AGKCommand163
PUBLIC	?AGKCommand164@@3P6AMI@ZA			; AGKCommand164
PUBLIC	?AGKCommand165@@3P6AMI@ZA			; AGKCommand165
PUBLIC	?AGKCommand166@@3P6AMI@ZA			; AGKCommand166
PUBLIC	?AGKCommand167@@3P6AMI@ZA			; AGKCommand167
PUBLIC	?AGKCommand168@@3P6AMI@ZA			; AGKCommand168
PUBLIC	?AGKCommand169@@3P6AMI@ZA			; AGKCommand169
PUBLIC	?AGKCommand170@@3P6AMI@ZA			; AGKCommand170
PUBLIC	?AGKCommand171@@3P6AHIMM@ZA			; AGKCommand171
PUBLIC	?AGKCommand172@@3P6AHMM@ZA			; AGKCommand172
PUBLIC	?AGKCommand173@@3P6AHHMM@ZA			; AGKCommand173
PUBLIC	?AGKCommand174@@3P6AHIMM@ZA			; AGKCommand174
PUBLIC	?AGKCommand175@@3P6AHI@ZA			; AGKCommand175
PUBLIC	?AGKCommand176@@3P6AII@ZA			; AGKCommand176
PUBLIC	?AGKCommand177@@3P6AII@ZA			; AGKCommand177
PUBLIC	?AGKCommand178@@3P6AII@ZA			; AGKCommand178
PUBLIC	?AGKCommand179@@3P6AII@ZA			; AGKCommand179
PUBLIC	?AGKCommand180@@3P6AHI@ZA			; AGKCommand180
PUBLIC	?AGKCommand181@@3P6AHI@ZA			; AGKCommand181
PUBLIC	?AGKCommand182@@3P6AHI@ZA			; AGKCommand182
PUBLIC	?AGKCommand183@@3P6AHI@ZA			; AGKCommand183
PUBLIC	?AGKCommand184@@3P6AMIH@ZA			; AGKCommand184
PUBLIC	?AGKCommand185@@3P6AMIH@ZA			; AGKCommand185
PUBLIC	?AGKCommand186@@3P6AHIM@ZA			; AGKCommand186
PUBLIC	?AGKCommand187@@3P6AHIM@ZA			; AGKCommand187
PUBLIC	?AGKCommand188@@3P6AMIMM@ZA			; AGKCommand188
PUBLIC	?AGKCommand189@@3P6AMIMM@ZA			; AGKCommand189
PUBLIC	?AGKCommand190@@3P6AMIMM@ZA			; AGKCommand190
PUBLIC	?AGKCommand191@@3P6AMIMM@ZA			; AGKCommand191
PUBLIC	?AGKCommand192@@3P6AXIMM@ZA			; AGKCommand192
PUBLIC	?AGKCommand193@@3P6AXIHHH@ZA			; AGKCommand193
PUBLIC	?AGKCommand194@@3P6AXII@ZA			; AGKCommand194
PUBLIC	?AGKCommand195@@3P6AXI@ZA			; AGKCommand195
PUBLIC	?AGKCommand196@@3P6AXIM@ZA			; AGKCommand196
PUBLIC	?AGKCommand197@@3P6AXI@ZA			; AGKCommand197
PUBLIC	?AGKCommand198@@3P6AXIM@ZA			; AGKCommand198
PUBLIC	?AGKCommand199@@3P6AXIMH@ZA			; AGKCommand199
PUBLIC	?AGKCommand200@@3P6AXIMHHH@ZA			; AGKCommand200
PUBLIC	?AGKCommand201@@3P6AXI@ZA			; AGKCommand201
PUBLIC	?AGKCommand202@@3P6AXI@ZA			; AGKCommand202
PUBLIC	?AGKCommand203@@3P6AXIH@ZA			; AGKCommand203
PUBLIC	?AGKCommand204@@3P6AHI@ZA			; AGKCommand204
PUBLIC	?AGKCommand205@@3P6AHI@ZA			; AGKCommand205
PUBLIC	?AGKCommand206@@3P6AXIH@ZA			; AGKCommand206
PUBLIC	?AGKCommand207@@3P6AXIMM@ZA			; AGKCommand207
PUBLIC	?AGKCommand208@@3P6AXIHHHH@ZA			; AGKCommand208
PUBLIC	?AGKCommand209@@3P6AXIH@ZA			; AGKCommand209
PUBLIC	?AGKCommand210@@3P6AXIH@ZA			; AGKCommand210
PUBLIC	?AGKCommand211@@3P6AXIH@ZA			; AGKCommand211
PUBLIC	?AGKCommand212@@3P6AXIH@ZA			; AGKCommand212
PUBLIC	?AGKCommand213@@3P6AXIM@ZA			; AGKCommand213
PUBLIC	?AGKCommand214@@3P6AXIMM@ZA			; AGKCommand214
PUBLIC	?AGKCommand215@@3P6AXIMM@ZA			; AGKCommand215
PUBLIC	?AGKCommand216@@3P6AXIH@ZA			; AGKCommand216
PUBLIC	?AGKCommand217@@3P6AXIMM@ZA			; AGKCommand217
PUBLIC	?AGKCommand218@@3P6AXIMM@ZA			; AGKCommand218
PUBLIC	?AGKCommand219@@3P6AXIMMMM@ZA			; AGKCommand219
PUBLIC	?AGKCommand220@@3P6AXII@ZA			; AGKCommand220
PUBLIC	?AGKCommand221@@3P6AXI@ZA			; AGKCommand221
PUBLIC	?AGKCommand222@@3P6AXM@ZA			; AGKCommand222
PUBLIC	?AGKCommand223@@3P6AXMM@ZA			; AGKCommand223
PUBLIC	?AGKCommand224@@3P6AXXZA			; AGKCommand224
PUBLIC	?AGKCommand225@@3P6AXXZA			; AGKCommand225
PUBLIC	?AGKCommand226@@3P6AXH@ZA			; AGKCommand226
PUBLIC	?AGKCommand227@@3P6AXH@ZA			; AGKCommand227
PUBLIC	?AGKCommand228@@3P6AXH@ZA			; AGKCommand228
PUBLIC	?AGKCommand229@@3P6AMXZA			; AGKCommand229
PUBLIC	?AGKCommand230@@3P6AHXZA			; AGKCommand230
PUBLIC	?AGKCommand231@@3P6AXH@ZA			; AGKCommand231
PUBLIC	?AGKCommand232@@3P6AXH@ZA			; AGKCommand232
PUBLIC	?AGKCommand233@@3P6AXH@ZA			; AGKCommand233
PUBLIC	?AGKCommand234@@3P6AXH@ZA			; AGKCommand234
PUBLIC	?AGKCommand235@@3P6AXH@ZA			; AGKCommand235
PUBLIC	?AGKCommand236@@3P6AIMMMMMH@ZA			; AGKCommand236
PUBLIC	?AGKCommand237@@3P6AXI@ZA			; AGKCommand237
PUBLIC	?AGKCommand238@@3P6AXIMM@ZA			; AGKCommand238
PUBLIC	?AGKCommand239@@3P6AXIM@ZA			; AGKCommand239
PUBLIC	?AGKCommand240@@3P6AXIM@ZA			; AGKCommand240
PUBLIC	?AGKCommand241@@3P6AXIH@ZA			; AGKCommand241
PUBLIC	?AGKCommand242@@3P6AXIMMMMM@ZA			; AGKCommand242
PUBLIC	?AGKCommand243@@3P6AXIMMM@ZA			; AGKCommand243
PUBLIC	?AGKCommand244@@3P6AXIIIMM@ZA			; AGKCommand244
PUBLIC	?AGKCommand245@@3P6AXIMMMMM@ZA			; AGKCommand245
PUBLIC	?AGKCommand246@@3P6AXIMMM@ZA			; AGKCommand246
PUBLIC	?AGKCommand247@@3P6AXIIIMM@ZA			; AGKCommand247
PUBLIC	?AGKCommand248@@3P6AXI@ZA			; AGKCommand248
PUBLIC	?AGKCommand249@@3P6AXIMM@ZA			; AGKCommand249
PUBLIC	?AGKCommand250@@3P6AXI@ZA			; AGKCommand250
PUBLIC	?AGKCommand251@@3P6AXIH@ZA			; AGKCommand251
PUBLIC	?AGKCommand252@@3P6AXI@ZA			; AGKCommand252
PUBLIC	?AGKCommand253@@3P6AXI@ZA			; AGKCommand253
PUBLIC	?AGKCommand254@@3P6AXIM@ZA			; AGKCommand254
PUBLIC	?AGKCommand255@@3P6AXIM@ZA			; AGKCommand255
PUBLIC	?AGKCommand256@@3P6AXIH@ZA			; AGKCommand256
PUBLIC	?AGKCommand257@@3P6AXIMM@ZA			; AGKCommand257
PUBLIC	?AGKCommand258@@3P6AXIM@ZA			; AGKCommand258
PUBLIC	?AGKCommand259@@3P6AXIM@ZA			; AGKCommand259
PUBLIC	?AGKCommand260@@3P6AXIM@ZA			; AGKCommand260
PUBLIC	?AGKCommand261@@3P6AXIH@ZA			; AGKCommand261
PUBLIC	?AGKCommand262@@3P6AXIM@ZA			; AGKCommand262
PUBLIC	?AGKCommand263@@3P6AXIH@ZA			; AGKCommand263
PUBLIC	?AGKCommand264@@3P6AXIH@ZA			; AGKCommand264
PUBLIC	?AGKCommand265@@3P6AXII@ZA			; AGKCommand265
PUBLIC	?AGKCommand266@@3P6AXIIH@ZA			; AGKCommand266
PUBLIC	?AGKCommand267@@3P6AXII@ZA			; AGKCommand267
PUBLIC	?AGKCommand268@@3P6AXIIH@ZA			; AGKCommand268
PUBLIC	?AGKCommand269@@3P6AXIMMMM@ZA			; AGKCommand269
PUBLIC	?AGKCommand270@@3P6AXIM@ZA			; AGKCommand270
PUBLIC	?AGKCommand271@@3P6AXIMMMM@ZA			; AGKCommand271
PUBLIC	?AGKCommand272@@3P6AXIM@ZA			; AGKCommand272
PUBLIC	?AGKCommand273@@3P6AMI@ZA			; AGKCommand273
PUBLIC	?AGKCommand274@@3P6AMI@ZA			; AGKCommand274
PUBLIC	?AGKCommand275@@3P6AMI@ZA			; AGKCommand275
PUBLIC	?AGKCommand276@@3P6AMI@ZA			; AGKCommand276
PUBLIC	?AGKCommand277@@3P6AXI@ZA			; AGKCommand277
PUBLIC	?AGKCommand278@@3P6AHI@ZA			; AGKCommand278
PUBLIC	?AGKCommand279@@3P6AXIIIMMMMH@ZA		; AGKCommand279
PUBLIC	?AGKCommand280@@3P6AXIIIMMH@ZA			; AGKCommand280
PUBLIC	?AGKCommand281@@3P6AXIIIMMMMH@ZA		; AGKCommand281
PUBLIC	?AGKCommand282@@3P6AXIIIMMMMMMMMMH@ZA		; AGKCommand282
PUBLIC	?AGKCommand283@@3P6AXIIMMM@ZA			; AGKCommand283
PUBLIC	?AGKCommand284@@3P6AXIIIMMMMH@ZA		; AGKCommand284
PUBLIC	?AGKCommand285@@3P6AXIIIMMH@ZA			; AGKCommand285
PUBLIC	?AGKCommand286@@3P6AXIIIM@ZA			; AGKCommand286
PUBLIC	?AGKCommand287@@3P6AIIIMMMMH@ZA			; AGKCommand287
PUBLIC	?AGKCommand288@@3P6AIIIMMH@ZA			; AGKCommand288
PUBLIC	?AGKCommand289@@3P6AIIIMMMMH@ZA			; AGKCommand289
PUBLIC	?AGKCommand290@@3P6AXIIMH@ZA			; AGKCommand290
PUBLIC	?AGKCommand291@@3P6AIMMMMMMMM@ZA		; AGKCommand291
PUBLIC	?AGKCommand292@@3P6AIIMMM@ZA			; AGKCommand292
PUBLIC	?AGKCommand293@@3P6AIIIMMMMH@ZA			; AGKCommand293
PUBLIC	?AGKCommand294@@3P6AIIIMMH@ZA			; AGKCommand294
PUBLIC	?AGKCommand295@@3P6AIIIM@ZA			; AGKCommand295
PUBLIC	?AGKCommand296@@3P6AXIMM@ZA			; AGKCommand296
PUBLIC	?AGKCommand297@@3P6AXI@ZA			; AGKCommand297
PUBLIC	?AGKCommand298@@3P6AXIMM@ZA			; AGKCommand298
PUBLIC	?AGKCommand299@@3P6AXI@ZA			; AGKCommand299
PUBLIC	?AGKCommand300@@3P6AXIMM@ZA			; AGKCommand300
PUBLIC	?AGKCommand301@@3P6AMI@ZA			; AGKCommand301
PUBLIC	?AGKCommand302@@3P6AMI@ZA			; AGKCommand302
PUBLIC	?AGKCommand303@@3P6AMI@ZA			; AGKCommand303
PUBLIC	?AGKCommand304@@3P6AHMMMM@ZA			; AGKCommand304
PUBLIC	?AGKCommand305@@3P6AHHMMMM@ZA			; AGKCommand305
PUBLIC	?AGKCommand306@@3P6AHIMMMM@ZA			; AGKCommand306
PUBLIC	?AGKCommand307@@3P6AHIMMMM@ZA			; AGKCommand307
PUBLIC	?AGKCommand308@@3P6AHMMMM@ZA			; AGKCommand308
PUBLIC	?AGKCommand309@@3P6AHHMMMM@ZA			; AGKCommand309
PUBLIC	?AGKCommand310@@3P6AHIMMMM@ZA			; AGKCommand310
PUBLIC	?AGKCommand311@@3P6APAVcSprite@@XZA		; AGKCommand311
PUBLIC	?AGKCommand312@@3P6AIXZA			; AGKCommand312
PUBLIC	?AGKCommand313@@3P6AMXZA			; AGKCommand313
PUBLIC	?AGKCommand314@@3P6AMXZA			; AGKCommand314
PUBLIC	?AGKCommand315@@3P6AMXZA			; AGKCommand315
PUBLIC	?AGKCommand316@@3P6AMXZA			; AGKCommand316
PUBLIC	?AGKCommand317@@3P6AMXZA			; AGKCommand317
PUBLIC	?AGKCommand318@@3P6AHIMMMM@ZA			; AGKCommand318
PUBLIC	?AGKCommand319@@3P6AHIMMM@ZA			; AGKCommand319
PUBLIC	?AGKCommand320@@3P6AHII@ZA			; AGKCommand320
PUBLIC	?AGKCommand321@@3P6AMII@ZA			; AGKCommand321
PUBLIC	?AGKCommand322@@3P6AMXZA			; AGKCommand322
PUBLIC	?AGKCommand323@@3P6AMXZA			; AGKCommand323
PUBLIC	?AGKCommand324@@3P6AMXZA			; AGKCommand324
PUBLIC	?AGKCommand325@@3P6AMXZA			; AGKCommand325
PUBLIC	?AGKCommand326@@3P6AHXZA			; AGKCommand326
PUBLIC	?AGKCommand327@@3P6AHXZA			; AGKCommand327
PUBLIC	?AGKCommand328@@3P6AMXZA			; AGKCommand328
PUBLIC	?AGKCommand329@@3P6AMXZA			; AGKCommand329
PUBLIC	?AGKCommand330@@3P6AIXZA			; AGKCommand330
PUBLIC	?AGKCommand331@@3P6AIXZA			; AGKCommand331
PUBLIC	?AGKCommand332@@3P6AHI@ZA			; AGKCommand332
PUBLIC	?AGKCommand333@@3P6AHXZA			; AGKCommand333
PUBLIC	?AGKCommand334@@3P6AMXZA			; AGKCommand334
PUBLIC	?AGKCommand335@@3P6AMXZA			; AGKCommand335
PUBLIC	?AGKCommand336@@3P6AIXZA			; AGKCommand336
PUBLIC	?AGKCommand337@@3P6AHII@ZA			; AGKCommand337
PUBLIC	?AGKCommand338@@3P6AMXZA			; AGKCommand338
PUBLIC	?AGKCommand339@@3P6AMXZA			; AGKCommand339
PUBLIC	?AGKCommand340@@3P6AMXZA			; AGKCommand340
PUBLIC	?AGKCommand341@@3P6AMXZA			; AGKCommand341
PUBLIC	?AGKCommand342@@3P6AXIMM@ZA			; AGKCommand342
PUBLIC	?AGKCommand343@@3P6AIMM@ZA			; AGKCommand343
PUBLIC	?AGKCommand344@@3P6AHI@ZA			; AGKCommand344
PUBLIC	?AGKCommand345@@3P6AXI@ZA			; AGKCommand345
PUBLIC	?AGKCommand346@@3P6AXIMM@ZA			; AGKCommand346
PUBLIC	?AGKCommand347@@3P6AXIH@ZA			; AGKCommand347
PUBLIC	?AGKCommand348@@3P6AXIM@ZA			; AGKCommand348
PUBLIC	?AGKCommand349@@3P6AXIMMMM@ZA			; AGKCommand349
PUBLIC	?AGKCommand350@@3P6AXIMM@ZA			; AGKCommand350
PUBLIC	?AGKCommand351@@3P6AXIMM@ZA			; AGKCommand351
PUBLIC	?AGKCommand352@@3P6AXIM@ZA			; AGKCommand352
PUBLIC	?AGKCommand353@@3P6AXIM@ZA			; AGKCommand353
PUBLIC	?AGKCommand354@@3P6AXIMM@ZA			; AGKCommand354
PUBLIC	?AGKCommand355@@3P6AXIMM@ZA			; AGKCommand355
PUBLIC	?AGKCommand356@@3P6AXIH@ZA			; AGKCommand356
PUBLIC	?AGKCommand357@@3P6AXIM@ZA			; AGKCommand357
PUBLIC	?AGKCommand358@@3P6AXIM@ZA			; AGKCommand358
PUBLIC	?AGKCommand359@@3P6AXIH@ZA			; AGKCommand359
PUBLIC	?AGKCommand360@@3P6AXI@ZA			; AGKCommand360
PUBLIC	?AGKCommand361@@3P6AXII@ZA			; AGKCommand361
PUBLIC	?AGKCommand362@@3P6AXIH@ZA			; AGKCommand362
PUBLIC	?AGKCommand363@@3P6AXIH@ZA			; AGKCommand363
PUBLIC	?AGKCommand364@@3P6AXIH@ZA			; AGKCommand364
PUBLIC	?AGKCommand365@@3P6AXIH@ZA			; AGKCommand365
PUBLIC	?AGKCommand366@@3P6AMI@ZA			; AGKCommand366
PUBLIC	?AGKCommand367@@3P6AMI@ZA			; AGKCommand367
PUBLIC	?AGKCommand368@@3P6AHI@ZA			; AGKCommand368
PUBLIC	?AGKCommand369@@3P6AHI@ZA			; AGKCommand369
PUBLIC	?AGKCommand370@@3P6AHI@ZA			; AGKCommand370
PUBLIC	?AGKCommand371@@3P6AMI@ZA			; AGKCommand371
PUBLIC	?AGKCommand372@@3P6AMI@ZA			; AGKCommand372
PUBLIC	?AGKCommand373@@3P6AMI@ZA			; AGKCommand373
PUBLIC	?AGKCommand374@@3P6AMI@ZA			; AGKCommand374
PUBLIC	?AGKCommand375@@3P6AMI@ZA			; AGKCommand375
PUBLIC	?AGKCommand376@@3P6AMI@ZA			; AGKCommand376
PUBLIC	?AGKCommand377@@3P6AMI@ZA			; AGKCommand377
PUBLIC	?AGKCommand378@@3P6AHI@ZA			; AGKCommand378
PUBLIC	?AGKCommand379@@3P6AXIMMMM@ZA			; AGKCommand379
PUBLIC	?AGKCommand380@@3P6AXI@ZA			; AGKCommand380
PUBLIC	?AGKCommand381@@3P6AXIMIIII@ZA			; AGKCommand381
PUBLIC	?AGKCommand382@@3P6AXI@ZA			; AGKCommand382
PUBLIC	?AGKCommand383@@3P6AXIMM@ZA			; AGKCommand383
PUBLIC	?AGKCommand384@@3P6AXI@ZA			; AGKCommand384
PUBLIC	?AGKCommand385@@3P6AXIH@ZA			; AGKCommand385
PUBLIC	?AGKCommand386@@3P6AXIM@ZA			; AGKCommand386
PUBLIC	?AGKCommand387@@3P6AXIMM@ZA			; AGKCommand387
PUBLIC	?AGKCommand388@@3P6AXIPBD@ZA			; AGKCommand388
PUBLIC	?AGKCommand389@@3P6AIPBD@ZA			; AGKCommand389
PUBLIC	?AGKCommand390@@3P6AII@ZA			; AGKCommand390
PUBLIC	?AGKCommand391@@3P6AXI@ZA			; AGKCommand391
PUBLIC	?AGKCommand392@@3P6AXXZA			; AGKCommand392
PUBLIC	?AGKCommand393@@3P6AXIPBD@ZA			; AGKCommand393
PUBLIC	?AGKCommand394@@3P6AXIMM@ZA			; AGKCommand394
PUBLIC	?AGKCommand395@@3P6AXIM@ZA			; AGKCommand395
PUBLIC	?AGKCommand396@@3P6AXIM@ZA			; AGKCommand396
PUBLIC	?AGKCommand397@@3P6AXIM@ZA			; AGKCommand397
PUBLIC	?AGKCommand398@@3P6AXIM@ZA			; AGKCommand398
PUBLIC	?AGKCommand399@@3P6AXIH@ZA			; AGKCommand399
PUBLIC	?AGKCommand400@@3P6AXIM@ZA			; AGKCommand400
PUBLIC	?AGKCommand401@@3P6AXIM@ZA			; AGKCommand401
PUBLIC	?AGKCommand402@@3P6AXIM@ZA			; AGKCommand402
PUBLIC	?AGKCommand403@@3P6AXIH@ZA			; AGKCommand403
PUBLIC	?AGKCommand404@@3P6AXIH@ZA			; AGKCommand404
PUBLIC	?AGKCommand405@@3P6AXIIIII@ZA			; AGKCommand405
PUBLIC	?AGKCommand406@@3P6AXII@ZA			; AGKCommand406
PUBLIC	?AGKCommand407@@3P6AXII@ZA			; AGKCommand407
PUBLIC	?AGKCommand408@@3P6AXII@ZA			; AGKCommand408
PUBLIC	?AGKCommand409@@3P6AXII@ZA			; AGKCommand409
PUBLIC	?AGKCommand410@@3P6AII@ZA			; AGKCommand410
PUBLIC	?AGKCommand411@@3P6AII@ZA			; AGKCommand411
PUBLIC	?AGKCommand412@@3P6AII@ZA			; AGKCommand412
PUBLIC	?AGKCommand413@@3P6AII@ZA			; AGKCommand413
PUBLIC	?AGKCommand414@@3P6AXIIMM@ZA			; AGKCommand414
PUBLIC	?AGKCommand415@@3P6AXIIM@ZA			; AGKCommand415
PUBLIC	?AGKCommand416@@3P6AXIIM@ZA			; AGKCommand416
PUBLIC	?AGKCommand417@@3P6AXIIM@ZA			; AGKCommand417
PUBLIC	?AGKCommand418@@3P6AXIIM@ZA			; AGKCommand418
PUBLIC	?AGKCommand419@@3P6AXIIIIII@ZA			; AGKCommand419
PUBLIC	?AGKCommand420@@3P6AXIII@ZA			; AGKCommand420
PUBLIC	?AGKCommand421@@3P6AXIII@ZA			; AGKCommand421
PUBLIC	?AGKCommand422@@3P6AXIII@ZA			; AGKCommand422
PUBLIC	?AGKCommand423@@3P6AXIII@ZA			; AGKCommand423
PUBLIC	?AGKCommand424@@3P6AXIII@ZA			; AGKCommand424
PUBLIC	?AGKCommand425@@3P6AMII@ZA			; AGKCommand425
PUBLIC	?AGKCommand426@@3P6AMII@ZA			; AGKCommand426
PUBLIC	?AGKCommand427@@3P6AMII@ZA			; AGKCommand427
PUBLIC	?AGKCommand428@@3P6AMII@ZA			; AGKCommand428
PUBLIC	?AGKCommand429@@3P6AIII@ZA			; AGKCommand429
PUBLIC	?AGKCommand430@@3P6AIII@ZA			; AGKCommand430
PUBLIC	?AGKCommand431@@3P6AIII@ZA			; AGKCommand431
PUBLIC	?AGKCommand432@@3P6AIII@ZA			; AGKCommand432
PUBLIC	?AGKCommand433@@3P6AMI@ZA			; AGKCommand433
PUBLIC	?AGKCommand434@@3P6AMI@ZA			; AGKCommand434
PUBLIC	?AGKCommand435@@3P6AII@ZA			; AGKCommand435
PUBLIC	?AGKCommand436@@3P6AMI@ZA			; AGKCommand436
PUBLIC	?AGKCommand437@@3P6AMI@ZA			; AGKCommand437
PUBLIC	?AGKCommand438@@3P6AHIMM@ZA			; AGKCommand438
PUBLIC	?AGKCommand439@@3P6AXII@ZA			; AGKCommand439
PUBLIC	?AGKCommand440@@3P6AXII@ZA			; AGKCommand440
PUBLIC	?AGKCommand441@@3P6AXII@ZA			; AGKCommand441
PUBLIC	?AGKCommand442@@3P6AXI@ZA			; AGKCommand442
PUBLIC	?AGKCommand443@@3P6AXI@ZA			; AGKCommand443
PUBLIC	?AGKCommand444@@3P6AXI@ZA			; AGKCommand444
PUBLIC	?AGKCommand445@@3P6AXI@ZA			; AGKCommand445
PUBLIC	?AGKCommand446@@3P6AXIH@ZA			; AGKCommand446
PUBLIC	?AGKCommand447@@3P6AXIM@ZA			; AGKCommand447
PUBLIC	?AGKCommand448@@3P6AXIMMMM@ZA			; AGKCommand448
PUBLIC	?AGKCommand449@@3P6AXIH@ZA			; AGKCommand449
PUBLIC	?AGKCommand450@@3P6AXII@ZA			; AGKCommand450
PUBLIC	?AGKCommand451@@3P6AHI@ZA			; AGKCommand451
PUBLIC	?AGKCommand452@@3P6AHI@ZA			; AGKCommand452
PUBLIC	?AGKCommand453@@3P6AMI@ZA			; AGKCommand453
PUBLIC	?AGKCommand454@@3P6AMI@ZA			; AGKCommand454
PUBLIC	?AGKCommand455@@3P6AMI@ZA			; AGKCommand455
PUBLIC	?AGKCommand456@@3P6APADI@ZA			; AGKCommand456
PUBLIC	?AGKCommand457@@3P6AIPBD@ZA			; AGKCommand457
PUBLIC	?AGKCommand458@@3P6AXIPBD@ZA			; AGKCommand458
PUBLIC	?AGKCommand459@@3P6AHI@ZA			; AGKCommand459
PUBLIC	?AGKCommand460@@3P6AHPBD@ZA			; AGKCommand460
PUBLIC	?AGKCommand461@@3P6AXI@ZA			; AGKCommand461
PUBLIC	?AGKCommand462@@3P6AXPBD@ZA			; AGKCommand462
PUBLIC	?AGKCommand463@@3P6AXH@ZA			; AGKCommand463
PUBLIC	?AGKCommand464@@3P6AXM@ZA			; AGKCommand464
PUBLIC	?AGKCommand465@@3P6AXPBD@ZA			; AGKCommand465
PUBLIC	?AGKCommand466@@3P6AXH@ZA			; AGKCommand466
PUBLIC	?AGKCommand467@@3P6AXM@ZA			; AGKCommand467
PUBLIC	?AGKCommand468@@3P6AXM@ZA			; AGKCommand468
PUBLIC	?AGKCommand469@@3P6AXM@ZA			; AGKCommand469
PUBLIC	?AGKCommand470@@3P6AXIII@ZA			; AGKCommand470
PUBLIC	?AGKCommand471@@3P6AXIIII@ZA			; AGKCommand471
PUBLIC	?AGKCommand472@@3P6AXH@ZA			; AGKCommand472
PUBLIC	?AGKCommand473@@3P6AXI@ZA			; AGKCommand473
PUBLIC	?AGKCommand474@@3P6AIXZA			; AGKCommand474
PUBLIC	?AGKCommand475@@3P6AHI@ZA			; AGKCommand475
PUBLIC	?AGKCommand476@@3P6AXI@ZA			; AGKCommand476
PUBLIC	?AGKCommand477@@3P6AXIPBDMIH@ZA			; AGKCommand477
PUBLIC	?AGKCommand478@@3P6AIPBDMIH@ZA			; AGKCommand478
PUBLIC	?AGKCommand479@@3P6AXIPBDMI@ZA			; AGKCommand479
PUBLIC	?AGKCommand480@@3P6AIPBDMI@ZA			; AGKCommand480
PUBLIC	?AGKCommand481@@3P6AXIMM@ZA			; AGKCommand481
PUBLIC	?AGKCommand482@@3P6AXIM@ZA			; AGKCommand482
PUBLIC	?AGKCommand483@@3P6AXIHH@ZA			; AGKCommand483
PUBLIC	?AGKCommand484@@3P6AXII@ZA			; AGKCommand484
PUBLIC	?AGKCommand485@@3P6AXIH@ZA			; AGKCommand485
PUBLIC	?AGKCommand486@@3P6AXIH@ZA			; AGKCommand486
PUBLIC	?AGKCommand487@@3P6AMI@ZA			; AGKCommand487
PUBLIC	?AGKCommand488@@3P6AMI@ZA			; AGKCommand488
PUBLIC	?AGKCommand489@@3P6AMI@ZA			; AGKCommand489
PUBLIC	?AGKCommand490@@3P6AHIPBD@ZA			; AGKCommand490
PUBLIC	?AGKCommand491@@3P6AHIH@ZA			; AGKCommand491
PUBLIC	?AGKCommand492@@3P6AMIH@ZA			; AGKCommand492
PUBLIC	?AGKCommand493@@3P6AMIH@ZA			; AGKCommand493
PUBLIC	?AGKCommand494@@3P6AMIH@ZA			; AGKCommand494
PUBLIC	?AGKCommand495@@3P6AMIH@ZA			; AGKCommand495
PUBLIC	?AGKCommand496@@3P6AMIH@ZA			; AGKCommand496
PUBLIC	?AGKCommand497@@3P6AMIH@ZA			; AGKCommand497
PUBLIC	?AGKCommand498@@3P6AXIHMM@ZA			; AGKCommand498
PUBLIC	?AGKCommand499@@3P6AXIHM@ZA			; AGKCommand499
PUBLIC	?AGKCommand500@@3P6AXIHMM@ZA			; AGKCommand500
PUBLIC	?AGKCommand501@@3P6AXIHH@ZA			; AGKCommand501
PUBLIC	?AGKCommand502@@3P6AXIPBDMHM@ZA			; AGKCommand502
PUBLIC	?AGKCommand503@@3P6AXIPBDMM@ZA			; AGKCommand503
PUBLIC	?AGKCommand504@@3P6AXIM@ZA			; AGKCommand504
PUBLIC	?AGKCommand505@@3P6AMI@ZA			; AGKCommand505
PUBLIC	?AGKCommand506@@3P6AXI@ZA			; AGKCommand506
PUBLIC	?AGKCommand507@@3P6AHI@ZA			; AGKCommand507
PUBLIC	?AGKCommand508@@3P6AHI@ZA			; AGKCommand508
PUBLIC	?AGKCommand509@@3P6AMIPBD@ZA			; AGKCommand509
PUBLIC	?AGKCommand510@@3P6AHXZA			; AGKCommand510
PUBLIC	?AGKCommand511@@3P6AHXZA			; AGKCommand511
PUBLIC	?AGKCommand512@@3P6AHXZA			; AGKCommand512
PUBLIC	?AGKCommand513@@3P6AHXZA			; AGKCommand513
PUBLIC	?AGKCommand514@@3P6AHXZA			; AGKCommand514
PUBLIC	?AGKCommand515@@3P6AHXZA			; AGKCommand515
PUBLIC	?AGKCommand516@@3P6AHXZA			; AGKCommand516
PUBLIC	?AGKCommand517@@3P6AHXZA			; AGKCommand517
PUBLIC	?AGKCommand518@@3P6AHXZA			; AGKCommand518
PUBLIC	?AGKCommand519@@3P6AXI@ZA			; AGKCommand519
PUBLIC	?AGKCommand520@@3P6AHI@ZA			; AGKCommand520
PUBLIC	?AGKCommand521@@3P6AXIM@ZA			; AGKCommand521
PUBLIC	?AGKCommand522@@3P6AXIM@ZA			; AGKCommand522
PUBLIC	?AGKCommand523@@3P6AIM@ZA			; AGKCommand523
PUBLIC	?AGKCommand524@@3P6AHI@ZA			; AGKCommand524
PUBLIC	?AGKCommand525@@3P6AXIMMH@ZA			; AGKCommand525
PUBLIC	?AGKCommand526@@3P6AXIMMH@ZA			; AGKCommand526
PUBLIC	?AGKCommand527@@3P6AXIMMH@ZA			; AGKCommand527
PUBLIC	?AGKCommand528@@3P6AXIMMH@ZA			; AGKCommand528
PUBLIC	?AGKCommand529@@3P6AXIHHH@ZA			; AGKCommand529
PUBLIC	?AGKCommand530@@3P6AXIHHH@ZA			; AGKCommand530
PUBLIC	?AGKCommand531@@3P6AXIHHH@ZA			; AGKCommand531
PUBLIC	?AGKCommand532@@3P6AXIHHH@ZA			; AGKCommand532
PUBLIC	?AGKCommand533@@3P6AMI@ZA			; AGKCommand533
PUBLIC	?AGKCommand534@@3P6AMI@ZA			; AGKCommand534
PUBLIC	?AGKCommand535@@3P6AMI@ZA			; AGKCommand535
PUBLIC	?AGKCommand536@@3P6AMI@ZA			; AGKCommand536
PUBLIC	?AGKCommand537@@3P6AHI@ZA			; AGKCommand537
PUBLIC	?AGKCommand538@@3P6AHI@ZA			; AGKCommand538
PUBLIC	?AGKCommand539@@3P6AHI@ZA			; AGKCommand539
PUBLIC	?AGKCommand540@@3P6AHI@ZA			; AGKCommand540
PUBLIC	?AGKCommand541@@3P6AXIM@ZA			; AGKCommand541
PUBLIC	?AGKCommand542@@3P6AXI@ZA			; AGKCommand542
PUBLIC	?AGKCommand543@@3P6AHI@ZA			; AGKCommand543
PUBLIC	?AGKCommand544@@3P6AXIM@ZA			; AGKCommand544
PUBLIC	?AGKCommand545@@3P6AIM@ZA			; AGKCommand545
PUBLIC	?AGKCommand546@@3P6AHI@ZA			; AGKCommand546
PUBLIC	?AGKCommand547@@3P6AXIMMH@ZA			; AGKCommand547
PUBLIC	?AGKCommand548@@3P6AXIMMH@ZA			; AGKCommand548
PUBLIC	?AGKCommand549@@3P6AXIMMH@ZA			; AGKCommand549
PUBLIC	?AGKCommand550@@3P6AXIMMH@ZA			; AGKCommand550
PUBLIC	?AGKCommand551@@3P6AXIMMH@ZA			; AGKCommand551
PUBLIC	?AGKCommand552@@3P6AXIMMH@ZA			; AGKCommand552
PUBLIC	?AGKCommand553@@3P6AXIMMH@ZA			; AGKCommand553
PUBLIC	?AGKCommand554@@3P6AXIHHH@ZA			; AGKCommand554
PUBLIC	?AGKCommand555@@3P6AXIHHH@ZA			; AGKCommand555
PUBLIC	?AGKCommand556@@3P6AXIHHH@ZA			; AGKCommand556
PUBLIC	?AGKCommand557@@3P6AXIHHH@ZA			; AGKCommand557
PUBLIC	?AGKCommand558@@3P6AXIIM@ZA			; AGKCommand558
PUBLIC	?AGKCommand559@@3P6AXII@ZA			; AGKCommand559
PUBLIC	?AGKCommand560@@3P6AHII@ZA			; AGKCommand560
PUBLIC	?AGKCommand561@@3P6AXIM@ZA			; AGKCommand561
PUBLIC	?AGKCommand562@@3P6AIM@ZA			; AGKCommand562
PUBLIC	?AGKCommand563@@3P6AHI@ZA			; AGKCommand563
PUBLIC	?AGKCommand564@@3P6AXIMMH@ZA			; AGKCommand564
PUBLIC	?AGKCommand565@@3P6AXIMMH@ZA			; AGKCommand565
PUBLIC	?AGKCommand566@@3P6AXIMMH@ZA			; AGKCommand566
PUBLIC	?AGKCommand567@@3P6AXIMMH@ZA			; AGKCommand567
PUBLIC	?AGKCommand568@@3P6AXIMMH@ZA			; AGKCommand568
PUBLIC	?AGKCommand569@@3P6AXIMMH@ZA			; AGKCommand569
PUBLIC	?AGKCommand570@@3P6AXIHHH@ZA			; AGKCommand570
PUBLIC	?AGKCommand571@@3P6AXIHHH@ZA			; AGKCommand571
PUBLIC	?AGKCommand572@@3P6AXIHHH@ZA			; AGKCommand572
PUBLIC	?AGKCommand573@@3P6AXIHHH@ZA			; AGKCommand573
PUBLIC	?AGKCommand574@@3P6AXIIM@ZA			; AGKCommand574
PUBLIC	?AGKCommand575@@3P6AXII@ZA			; AGKCommand575
PUBLIC	?AGKCommand576@@3P6AHII@ZA			; AGKCommand576
PUBLIC	?AGKCommand577@@3P6AXIM@ZA			; AGKCommand577
PUBLIC	?AGKCommand578@@3P6AIM@ZA			; AGKCommand578
PUBLIC	?AGKCommand579@@3P6AHI@ZA			; AGKCommand579
PUBLIC	?AGKCommand580@@3P6AXIMMH@ZA			; AGKCommand580
PUBLIC	?AGKCommand581@@3P6AXIMMH@ZA			; AGKCommand581
PUBLIC	?AGKCommand582@@3P6AXIMMH@ZA			; AGKCommand582
PUBLIC	?AGKCommand583@@3P6AXIHHH@ZA			; AGKCommand583
PUBLIC	?AGKCommand584@@3P6AXIHHH@ZA			; AGKCommand584
PUBLIC	?AGKCommand585@@3P6AXIHHH@ZA			; AGKCommand585
PUBLIC	?AGKCommand586@@3P6AXIHHH@ZA			; AGKCommand586
PUBLIC	?AGKCommand587@@3P6AXIIIM@ZA			; AGKCommand587
PUBLIC	?AGKCommand588@@3P6AXIII@ZA			; AGKCommand588
PUBLIC	?AGKCommand589@@3P6AHIII@ZA			; AGKCommand589
PUBLIC	?AGKCommand590@@3P6AXIM@ZA			; AGKCommand590
PUBLIC	?AGKCommand591@@3P6AIM@ZA			; AGKCommand591
PUBLIC	?AGKCommand592@@3P6AHI@ZA			; AGKCommand592
PUBLIC	?AGKCommand593@@3P6AXIMMH@ZA			; AGKCommand593
PUBLIC	?AGKCommand594@@3P6AXIMMH@ZA			; AGKCommand594
PUBLIC	?AGKCommand595@@3P6AXIMMH@ZA			; AGKCommand595
PUBLIC	?AGKCommand596@@3P6AXIMMH@ZA			; AGKCommand596
PUBLIC	?AGKCommand597@@3P6AXIMMH@ZA			; AGKCommand597
PUBLIC	?AGKCommand598@@3P6AXIMMH@ZA			; AGKCommand598
PUBLIC	?AGKCommand599@@3P6AXIMMH@ZA			; AGKCommand599
PUBLIC	?AGKCommand600@@3P6AXIMMH@ZA			; AGKCommand600
PUBLIC	?AGKCommand601@@3P6AXIMMH@ZA			; AGKCommand601
PUBLIC	?AGKCommand602@@3P6AXIHHH@ZA			; AGKCommand602
PUBLIC	?AGKCommand603@@3P6AXIHHH@ZA			; AGKCommand603
PUBLIC	?AGKCommand604@@3P6AXIHHH@ZA			; AGKCommand604
PUBLIC	?AGKCommand605@@3P6AXIHHH@ZA			; AGKCommand605
PUBLIC	?AGKCommand606@@3P6AXIIM@ZA			; AGKCommand606
PUBLIC	?AGKCommand607@@3P6AXII@ZA			; AGKCommand607
PUBLIC	?AGKCommand608@@3P6AHII@ZA			; AGKCommand608
PUBLIC	?AGKCommand609@@3P6AXIM@ZA			; AGKCommand609
PUBLIC	?AGKCommand610@@3P6AIM@ZA			; AGKCommand610
PUBLIC	?AGKCommand611@@3P6AHI@ZA			; AGKCommand611
PUBLIC	?AGKCommand612@@3P6AXIMMH@ZA			; AGKCommand612
PUBLIC	?AGKCommand613@@3P6AXIMMH@ZA			; AGKCommand613
PUBLIC	?AGKCommand614@@3P6AXIMMH@ZA			; AGKCommand614
PUBLIC	?AGKCommand615@@3P6AXIMMH@ZA			; AGKCommand615
PUBLIC	?AGKCommand616@@3P6AXIMMH@ZA			; AGKCommand616
PUBLIC	?AGKCommand617@@3P6AXIMMH@ZA			; AGKCommand617
PUBLIC	?AGKCommand618@@3P6AXIMMH@ZA			; AGKCommand618
PUBLIC	?AGKCommand619@@3P6AXIIM@ZA			; AGKCommand619
PUBLIC	?AGKCommand620@@3P6AXII@ZA			; AGKCommand620
PUBLIC	?AGKCommand621@@3P6AHII@ZA			; AGKCommand621
PUBLIC	?AGKCommand622@@3P6AXI@ZA			; AGKCommand622
PUBLIC	?AGKCommand623@@3P6AIXZA			; AGKCommand623
PUBLIC	?AGKCommand624@@3P6AXI@ZA			; AGKCommand624
PUBLIC	?AGKCommand625@@3P6AXI@ZA			; AGKCommand625
PUBLIC	?AGKCommand626@@3P6AXIIM@ZA			; AGKCommand626
PUBLIC	?AGKCommand627@@3P6AXIIIM@ZA			; AGKCommand627
PUBLIC	?AGKCommand628@@3P6AXIIIM@ZA			; AGKCommand628
PUBLIC	?AGKCommand629@@3P6AXIIIIM@ZA			; AGKCommand629
PUBLIC	?AGKCommand630@@3P6AXIIIM@ZA			; AGKCommand630
PUBLIC	?AGKCommand631@@3P6AXIIIM@ZA			; AGKCommand631
PUBLIC	?AGKCommand632@@3P6AXI@ZA			; AGKCommand632
PUBLIC	?AGKCommand633@@3P6AXI@ZA			; AGKCommand633
PUBLIC	?AGKCommand634@@3P6AXI@ZA			; AGKCommand634
PUBLIC	?AGKCommand635@@3P6AHI@ZA			; AGKCommand635
PUBLIC	?AGKCommand636@@3P6AXIM@ZA			; AGKCommand636
PUBLIC	?AGKCommand637@@3P6AMI@ZA			; AGKCommand637
PUBLIC	?AGKCommand638@@3P6AXM@ZA			; AGKCommand638
PUBLIC	?AGKCommand639@@3P6AXIM@ZA			; AGKCommand639
PUBLIC	?AGKCommand640@@3P6AXIIM@ZA			; AGKCommand640
PUBLIC	?AGKCommand641@@3P6AXIIM@ZA			; AGKCommand641
PUBLIC	?AGKCommand642@@3P6AXIIIM@ZA			; AGKCommand642
PUBLIC	?AGKCommand643@@3P6AXIIM@ZA			; AGKCommand643
PUBLIC	?AGKCommand644@@3P6AXIIM@ZA			; AGKCommand644
PUBLIC	?AGKCommand645@@3P6AXIM@ZA			; AGKCommand645
PUBLIC	?AGKCommand646@@3P6AIH@ZA			; AGKCommand646
PUBLIC	?AGKCommand647@@3P6AIH@ZA			; AGKCommand647
PUBLIC	?AGKCommand648@@3P6AIXZA			; AGKCommand648
PUBLIC	?AGKCommand649@@3P6AHI@ZA			; AGKCommand649
PUBLIC	?AGKCommand650@@3P6AMI@ZA			; AGKCommand650
PUBLIC	?AGKCommand651@@3P6AMI@ZA			; AGKCommand651
PUBLIC	?AGKCommand652@@3P6AMI@ZA			; AGKCommand652
PUBLIC	?AGKCommand653@@3P6AMI@ZA			; AGKCommand653
PUBLIC	?AGKCommand654@@3P6AMI@ZA			; AGKCommand654
PUBLIC	?AGKCommand655@@3P6AMI@ZA			; AGKCommand655
PUBLIC	?AGKCommand656@@3P6AHI@ZA			; AGKCommand656
PUBLIC	?AGKCommand657@@3P6AXIH@ZA			; AGKCommand657
PUBLIC	?AGKCommand658@@3P6AHI@ZA			; AGKCommand658
PUBLIC	?AGKCommand659@@3P6AMI@ZA			; AGKCommand659
PUBLIC	?AGKCommand660@@3P6AXIPBD@ZA			; AGKCommand660
PUBLIC	?AGKCommand661@@3P6AIPBD@ZA			; AGKCommand661
PUBLIC	?AGKCommand662@@3P6AXIPBD@ZA			; AGKCommand662
PUBLIC	?AGKCommand663@@3P6AIPBD@ZA			; AGKCommand663
PUBLIC	?AGKCommand664@@3P6AXIPBD@ZA			; AGKCommand664
PUBLIC	?AGKCommand665@@3P6AII@ZA			; AGKCommand665
PUBLIC	?AGKCommand666@@3P6AIIH@ZA			; AGKCommand666
PUBLIC	?AGKCommand667@@3P6AIIHH@ZA			; AGKCommand667
PUBLIC	?AGKCommand668@@3P6AIIHHH@ZA			; AGKCommand668
PUBLIC	?AGKCommand669@@3P6AXI@ZA			; AGKCommand669
PUBLIC	?AGKCommand670@@3P6AXI@ZA			; AGKCommand670
PUBLIC	?AGKCommand671@@3P6AII@ZA			; AGKCommand671
PUBLIC	?AGKCommand672@@3P6AII@ZA			; AGKCommand672
PUBLIC	?AGKCommand673@@3P6AII@ZA			; AGKCommand673
PUBLIC	?AGKCommand674@@3P6AXH@ZA			; AGKCommand674
PUBLIC	?AGKCommand675@@3P6AMXZA			; AGKCommand675
PUBLIC	?AGKCommand676@@3P6AMXZA			; AGKCommand676
PUBLIC	?AGKCommand677@@3P6AHI@ZA			; AGKCommand677
PUBLIC	?AGKCommand678@@3P6AHI@ZA			; AGKCommand678
PUBLIC	?AGKCommand679@@3P6AMI@ZA			; AGKCommand679
PUBLIC	?AGKCommand680@@3P6AXIH@ZA			; AGKCommand680
PUBLIC	?AGKCommand681@@3P6AXIM@ZA			; AGKCommand681
PUBLIC	?AGKCommand682@@3P6AXIM@ZA			; AGKCommand682
PUBLIC	?AGKCommand683@@3P6AHI@ZA			; AGKCommand683
PUBLIC	?AGKCommand684@@3P6AXI@ZA			; AGKCommand684
PUBLIC	?AGKCommand685@@3P6AIPBD@ZA			; AGKCommand685
PUBLIC	?AGKCommand686@@3P6AXIPBD@ZA			; AGKCommand686
PUBLIC	?AGKCommand687@@3P6AXIH@ZA			; AGKCommand687
PUBLIC	?AGKCommand688@@3P6AXXZA			; AGKCommand688
PUBLIC	?AGKCommand689@@3P6AXI@ZA			; AGKCommand689
PUBLIC	?AGKCommand690@@3P6AXIH@ZA			; AGKCommand690
PUBLIC	?AGKCommand691@@3P6AXIHII@ZA			; AGKCommand691
PUBLIC	?AGKCommand692@@3P6AXXZA			; AGKCommand692
PUBLIC	?AGKCommand693@@3P6AXXZA			; AGKCommand693
PUBLIC	?AGKCommand694@@3P6AXXZA			; AGKCommand694
PUBLIC	?AGKCommand695@@3P6AXI@ZA			; AGKCommand695
PUBLIC	?AGKCommand696@@3P6AHXZA			; AGKCommand696
PUBLIC	?AGKCommand697@@3P6AXH@ZA			; AGKCommand697
PUBLIC	?AGKCommand698@@3P6AII@ZA			; AGKCommand698
PUBLIC	?AGKCommand699@@3P6AMI@ZA			; AGKCommand699
PUBLIC	?AGKCommand700@@3P6AMXZA			; AGKCommand700
PUBLIC	?AGKCommand701@@3P6AXMH@ZA			; AGKCommand701
PUBLIC	?AGKCommand702@@3P6AIPBD@ZA			; AGKCommand702
PUBLIC	?AGKCommand703@@3P6AXIPBD@ZA			; AGKCommand703
PUBLIC	?AGKCommand704@@3P6AHI@ZA			; AGKCommand704
PUBLIC	?AGKCommand705@@3P6AXIH@ZA			; AGKCommand705
PUBLIC	?AGKCommand706@@3P6AXI@ZA			; AGKCommand706
PUBLIC	?AGKCommand707@@3P6AXIH@ZA			; AGKCommand707
PUBLIC	?AGKCommand708@@3P6AXI@ZA			; AGKCommand708
PUBLIC	?AGKCommand709@@3P6AXI@ZA			; AGKCommand709
PUBLIC	?AGKCommand710@@3P6AXI@ZA			; AGKCommand710
PUBLIC	?AGKCommand711@@3P6AXI@ZA			; AGKCommand711
PUBLIC	?AGKCommand712@@3P6AHI@ZA			; AGKCommand712
PUBLIC	?AGKCommand713@@3P6AHI@ZA			; AGKCommand713
PUBLIC	?AGKCommand714@@3P6AMI@ZA			; AGKCommand714
PUBLIC	?AGKCommand715@@3P6AMI@ZA			; AGKCommand715
PUBLIC	?AGKCommand716@@3P6AXIMH@ZA			; AGKCommand716
PUBLIC	?AGKCommand717@@3P6AXH@ZA			; AGKCommand717
PUBLIC	?AGKCommand718@@3P6AXIMM@ZA			; AGKCommand718
PUBLIC	?AGKCommand719@@3P6AXIH@ZA			; AGKCommand719
PUBLIC	?AGKCommand720@@3P6AXPBD@ZA			; AGKCommand720
PUBLIC	?AGKCommand721@@3P6AXXZA			; AGKCommand721
PUBLIC	?AGKCommand722@@3P6AHXZA			; AGKCommand722
PUBLIC	?AGKCommand723@@3P6AXPBD@ZA			; AGKCommand723
PUBLIC	?AGKCommand724@@3P6AHPBD@ZA			; AGKCommand724
PUBLIC	?AGKCommand725@@3P6APADPBD@ZA			; AGKCommand725
PUBLIC	?AGKCommand726@@3P6APADPBDH@ZA			; AGKCommand726
PUBLIC	?AGKCommand727@@3P6APADPBD@ZA			; AGKCommand727
PUBLIC	?AGKCommand728@@3P6APADPBD0@ZA			; AGKCommand728
PUBLIC	?AGKCommand729@@3P6AHPBD@ZA			; AGKCommand729
PUBLIC	?AGKCommand730@@3P6AHXZA			; AGKCommand730
PUBLIC	?AGKCommand731@@3P6APADH@ZA			; AGKCommand731
PUBLIC	?AGKCommand732@@3P6AIPBD@ZA			; AGKCommand732
PUBLIC	?AGKCommand733@@3P6AXI@ZA			; AGKCommand733
PUBLIC	?AGKCommand734@@3P6AHI@ZA			; AGKCommand734
PUBLIC	?AGKCommand735@@3P6AHI@ZA			; AGKCommand735
PUBLIC	?AGKCommand736@@3P6APADIH@ZA			; AGKCommand736
PUBLIC	?AGKCommand737@@3P6APADIH@ZA			; AGKCommand737
PUBLIC	?AGKCommand738@@3P6AXIPBDH@ZA			; AGKCommand738
PUBLIC	?AGKCommand739@@3P6AXIPBD@ZA			; AGKCommand739
PUBLIC	?AGKCommand740@@3P6AIPBDH@ZA			; AGKCommand740
PUBLIC	?AGKCommand741@@3P6AIPBD@ZA			; AGKCommand741
PUBLIC	?AGKCommand742@@3P6AIPBD@ZA			; AGKCommand742
PUBLIC	?AGKCommand743@@3P6AXIPBD@ZA			; AGKCommand743
PUBLIC	?AGKCommand744@@3P6AHI@ZA			; AGKCommand744
PUBLIC	?AGKCommand745@@3P6AXI@ZA			; AGKCommand745
PUBLIC	?AGKCommand746@@3P6AHI@ZA			; AGKCommand746
PUBLIC	?AGKCommand747@@3P6AHI@ZA			; AGKCommand747
PUBLIC	?AGKCommand748@@3P6AHI@ZA			; AGKCommand748
PUBLIC	?AGKCommand749@@3P6AXIH@ZA			; AGKCommand749
PUBLIC	?AGKCommand750@@3P6AXIH@ZA			; AGKCommand750
PUBLIC	?AGKCommand751@@3P6AXIH@ZA			; AGKCommand751
PUBLIC	?AGKCommand752@@3P6AXIM@ZA			; AGKCommand752
PUBLIC	?AGKCommand753@@3P6AXIPBD@ZA			; AGKCommand753
PUBLIC	?AGKCommand754@@3P6AXIPBD@ZA			; AGKCommand754
PUBLIC	?AGKCommand755@@3P6AXIPBD@ZA			; AGKCommand755
PUBLIC	?AGKCommand756@@3P6AHI@ZA			; AGKCommand756
PUBLIC	?AGKCommand757@@3P6AHI@ZA			; AGKCommand757
PUBLIC	?AGKCommand758@@3P6AMI@ZA			; AGKCommand758
PUBLIC	?AGKCommand759@@3P6APADI@ZA			; AGKCommand759
PUBLIC	?AGKCommand760@@3P6APADI@ZA			; AGKCommand760
PUBLIC	?AGKCommand761@@3P6APADI@ZA			; AGKCommand761
PUBLIC	?AGKCommand762@@3P6APADH@ZA			; AGKCommand762
PUBLIC	?AGKCommand763@@3P6APADM@ZA			; AGKCommand763
PUBLIC	?AGKCommand764@@3P6APADMI@ZA			; AGKCommand764
PUBLIC	?AGKCommand765@@3P6APADH@ZA			; AGKCommand765
PUBLIC	?AGKCommand766@@3P6APADH@ZA			; AGKCommand766
PUBLIC	?AGKCommand767@@3P6APADPBD@ZA			; AGKCommand767
PUBLIC	?AGKCommand768@@3P6APADPBD@ZA			; AGKCommand768
PUBLIC	?AGKCommand769@@3P6AHPBD@ZA			; AGKCommand769
PUBLIC	?AGKCommand770@@3P6AHPBDH@ZA			; AGKCommand770
PUBLIC	?AGKCommand771@@3P6AMPBD@ZA			; AGKCommand771
PUBLIC	?AGKCommand772@@3P6APADPBDI@ZA			; AGKCommand772
PUBLIC	?AGKCommand773@@3P6APADPBDI@ZA			; AGKCommand773
PUBLIC	?AGKCommand774@@3P6APADPBDIH@ZA			; AGKCommand774
PUBLIC	?AGKCommand775@@3P6AIPBD@ZA			; AGKCommand775
PUBLIC	?AGKCommand776@@3P6AIPBD@ZA			; AGKCommand776
PUBLIC	?AGKCommand777@@3P6AIPBD@ZA			; AGKCommand777
PUBLIC	?AGKCommand778@@3P6APADI@ZA			; AGKCommand778
PUBLIC	?AGKCommand779@@3P6APADPBD@ZA			; AGKCommand779
PUBLIC	?AGKCommand780@@3P6APADPBD@ZA			; AGKCommand780
PUBLIC	?AGKCommand781@@3P6APADI@ZA			; AGKCommand781
PUBLIC	?AGKCommand782@@3P6AHPBD0@ZA			; AGKCommand782
PUBLIC	?AGKCommand783@@3P6AHPBD0HH@ZA			; AGKCommand783
PUBLIC	?AGKCommand784@@3P6AHPBD0@ZA			; AGKCommand784
PUBLIC	?AGKCommand785@@3P6AHPBD0HH@ZA			; AGKCommand785
PUBLIC	?AGKCommand786@@3P6AHPBD0@ZA			; AGKCommand786
PUBLIC	?AGKCommand787@@3P6AHPBD0HH@ZA			; AGKCommand787
PUBLIC	?AGKCommand788@@3P6AHPBD0@ZA			; AGKCommand788
PUBLIC	?AGKCommand789@@3P6AHPBD0HH@ZA			; AGKCommand789
PUBLIC	?AGKCommand790@@3P6APADPBD00H@ZA		; AGKCommand790
PUBLIC	?AGKCommand791@@3P6APADPBD0@ZA			; AGKCommand791
PUBLIC	?AGKCommand792@@3P6APADPBD0@ZA			; AGKCommand792
PUBLIC	?AGKCommand793@@3P6APADPBD0@ZA			; AGKCommand793
PUBLIC	?AGKCommand794@@3P6AHPBD0@ZA			; AGKCommand794
PUBLIC	?AGKCommand795@@3P6APADPBD0H@ZA			; AGKCommand795
PUBLIC	?AGKCommand796@@3P6AHPBD0@ZA			; AGKCommand796
PUBLIC	?AGKCommand797@@3P6APADPBD0H@ZA			; AGKCommand797
PUBLIC	?AGKCommand798@@3P6APADXZA			; AGKCommand798
PUBLIC	?AGKCommand799@@3P6APADXZA			; AGKCommand799
PUBLIC	?AGKCommand800@@3P6AHPBD@ZA			; AGKCommand800
PUBLIC	?AGKCommand801@@3P6APADXZA			; AGKCommand801
PUBLIC	?AGKCommand802@@3P6APADH@ZA			; AGKCommand802
PUBLIC	?AGKCommand803@@3P6APADXZA			; AGKCommand803
PUBLIC	?AGKCommand804@@3P6AHXZA			; AGKCommand804
PUBLIC	?AGKCommand805@@3P6AHH@ZA			; AGKCommand805
PUBLIC	?AGKCommand806@@3P6APADXZA			; AGKCommand806
PUBLIC	?AGKCommand807@@3P6APADH@ZA			; AGKCommand807
PUBLIC	?AGKCommand808@@3P6APADXZA			; AGKCommand808
PUBLIC	?AGKCommand809@@3P6AHXZA			; AGKCommand809
PUBLIC	?AGKCommand810@@3P6AHH@ZA			; AGKCommand810
PUBLIC	?AGKCommand811@@3P6AII@ZA			; AGKCommand811
PUBLIC	?AGKCommand812@@3P6AIPBDI@ZA			; AGKCommand812
PUBLIC	?AGKCommand813@@3P6AII@ZA			; AGKCommand813
PUBLIC	?AGKCommand814@@3P6AXI@ZA			; AGKCommand814
PUBLIC	?AGKCommand815@@3P6AIPBDHH@ZA			; AGKCommand815
PUBLIC	?AGKCommand816@@3P6AHIPBDHH@ZA			; AGKCommand816
PUBLIC	?AGKCommand817@@3P6AHI@ZA			; AGKCommand817
PUBLIC	?AGKCommand818@@3P6AHI@ZA			; AGKCommand818
PUBLIC	?AGKCommand819@@3P6AXI@ZA			; AGKCommand819
PUBLIC	?AGKCommand820@@3P6APADI@ZA			; AGKCommand820
PUBLIC	?AGKCommand821@@3P6AHI@ZA			; AGKCommand821
PUBLIC	?AGKCommand822@@3P6AHI@ZA			; AGKCommand822
PUBLIC	?AGKCommand823@@3P6AHI@ZA			; AGKCommand823
PUBLIC	?AGKCommand824@@3P6AHI@ZA			; AGKCommand824
PUBLIC	?AGKCommand825@@3P6AMI@ZA			; AGKCommand825
PUBLIC	?AGKCommand826@@3P6APADI@ZA			; AGKCommand826
PUBLIC	?AGKCommand827@@3P6AHIH@ZA			; AGKCommand827
PUBLIC	?AGKCommand828@@3P6AHIH@ZA			; AGKCommand828
PUBLIC	?AGKCommand829@@3P6AHIM@ZA			; AGKCommand829
PUBLIC	?AGKCommand830@@3P6AHIPBD@ZA			; AGKCommand830
PUBLIC	?AGKCommand831@@3P6AIPBDH@ZA			; AGKCommand831
PUBLIC	?AGKCommand832@@3P6AHIPBDH@ZA			; AGKCommand832
PUBLIC	?AGKCommand833@@3P6AII@ZA			; AGKCommand833
PUBLIC	?AGKCommand834@@3P6AXI@ZA			; AGKCommand834
PUBLIC	?AGKCommand835@@3P6AIPBD0H@ZA			; AGKCommand835
PUBLIC	?AGKCommand836@@3P6AIPBD0HH@ZA			; AGKCommand836
PUBLIC	?AGKCommand837@@3P6AXI@ZA			; AGKCommand837
PUBLIC	?AGKCommand838@@3P6AIPBD0@ZA			; AGKCommand838
PUBLIC	?AGKCommand839@@3P6AIPBDI0@ZA			; AGKCommand839
PUBLIC	?AGKCommand840@@3P6AII@ZA			; AGKCommand840
PUBLIC	?AGKCommand841@@3P6APADXZA			; AGKCommand841
PUBLIC	?AGKCommand842@@3P6APADXZA			; AGKCommand842
PUBLIC	?AGKCommand843@@3P6AXI@ZA			; AGKCommand843
PUBLIC	?AGKCommand844@@3P6AXII@ZA			; AGKCommand844
PUBLIC	?AGKCommand845@@3P6AII@ZA			; AGKCommand845
PUBLIC	?AGKCommand846@@3P6AII@ZA			; AGKCommand846
PUBLIC	?AGKCommand847@@3P6AII@ZA			; AGKCommand847
PUBLIC	?AGKCommand848@@3P6AII@ZA			; AGKCommand848
PUBLIC	?AGKCommand849@@3P6AIII@ZA			; AGKCommand849
PUBLIC	?AGKCommand850@@3P6AXII@ZA			; AGKCommand850
PUBLIC	?AGKCommand851@@3P6APADII@ZA			; AGKCommand851
PUBLIC	?AGKCommand852@@3P6AMII@ZA			; AGKCommand852
PUBLIC	?AGKCommand853@@3P6AII@ZA			; AGKCommand853
PUBLIC	?AGKCommand854@@3P6AXIPBDH@ZA			; AGKCommand854
PUBLIC	?AGKCommand855@@3P6AXIPBDHH@ZA			; AGKCommand855
PUBLIC	?AGKCommand856@@3P6AXIPBDM@ZA			; AGKCommand856
PUBLIC	?AGKCommand857@@3P6AXIPBDMH@ZA			; AGKCommand857
PUBLIC	?AGKCommand858@@3P6AHIIPBD@ZA			; AGKCommand858
PUBLIC	?AGKCommand859@@3P6AMIIPBD@ZA			; AGKCommand859
PUBLIC	?AGKCommand860@@3P6AIXZA			; AGKCommand860
PUBLIC	?AGKCommand861@@3P6AXIH@ZA			; AGKCommand861
PUBLIC	?AGKCommand862@@3P6AXIM@ZA			; AGKCommand862
PUBLIC	?AGKCommand863@@3P6AXIPBD@ZA			; AGKCommand863
PUBLIC	?AGKCommand864@@3P6APADI@ZA			; AGKCommand864
PUBLIC	?AGKCommand865@@3P6AII@ZA			; AGKCommand865
PUBLIC	?AGKCommand866@@3P6AHI@ZA			; AGKCommand866
PUBLIC	?AGKCommand867@@3P6AMI@ZA			; AGKCommand867
PUBLIC	?AGKCommand868@@3P6APADI@ZA			; AGKCommand868
PUBLIC	?AGKCommand869@@3P6AXI@ZA			; AGKCommand869
PUBLIC	?AGKCommand870@@3P6AXIII@ZA			; AGKCommand870
PUBLIC	?AGKCommand871@@3P6AII@ZA			; AGKCommand871
PUBLIC	?AGKCommand872@@3P6AXIIIH@ZA			; AGKCommand872
PUBLIC	?AGKCommand873@@3P6AHIII@ZA			; AGKCommand873
PUBLIC	?AGKCommand874@@3P6AIXZA			; AGKCommand874
PUBLIC	?AGKCommand875@@3P6AXI@ZA			; AGKCommand875
PUBLIC	?AGKCommand876@@3P6AIIPBDH@ZA			; AGKCommand876
PUBLIC	?AGKCommand877@@3P6AIIPBDH00@ZA			; AGKCommand877
PUBLIC	?AGKCommand878@@3P6AXI@ZA			; AGKCommand878
PUBLIC	?AGKCommand879@@3P6AXIH@ZA			; AGKCommand879
PUBLIC	?AGKCommand880@@3P6AXIH@ZA			; AGKCommand880
PUBLIC	?AGKCommand881@@3P6APADIPBD@ZA			; AGKCommand881
PUBLIC	?AGKCommand882@@3P6APADIPBD0@ZA			; AGKCommand882
PUBLIC	?AGKCommand883@@3P6AHIPBD@ZA			; AGKCommand883
PUBLIC	?AGKCommand884@@3P6AHIPBD0@ZA			; AGKCommand884
PUBLIC	?AGKCommand885@@3P6AHIPBD00@ZA			; AGKCommand885
PUBLIC	?AGKCommand886@@3P6APADI@ZA			; AGKCommand886
PUBLIC	?AGKCommand887@@3P6AHI@ZA			; AGKCommand887
PUBLIC	?AGKCommand888@@3P6AHIPBD0@ZA			; AGKCommand888
PUBLIC	?AGKCommand889@@3P6AHIPBD00@ZA			; AGKCommand889
PUBLIC	?AGKCommand890@@3P6AHI@ZA			; AGKCommand890
PUBLIC	?AGKCommand891@@3P6AMI@ZA			; AGKCommand891
PUBLIC	?AGKCommand892@@3P6AXH@ZA			; AGKCommand892
PUBLIC	?AGKCommand893@@3P6APADXZA			; AGKCommand893
PUBLIC	?AGKCommand894@@3P6AHXZA			; AGKCommand894
PUBLIC	?AGKCommand895@@3P6AXPBD@ZA			; AGKCommand895
PUBLIC	?AGKCommand896@@3P6AXPBD@ZA			; AGKCommand896
PUBLIC	?AGKCommand897@@3P6AHXZA			; AGKCommand897
PUBLIC	?AGKCommand898@@3P6AMXZA			; AGKCommand898
PUBLIC	?AGKCommand899@@3P6AMXZA			; AGKCommand899
PUBLIC	?AGKCommand900@@3P6AMXZA			; AGKCommand900
PUBLIC	?AGKCommand901@@3P6AMXZA			; AGKCommand901
PUBLIC	?AGKCommand902@@3P6AHXZA			; AGKCommand902
PUBLIC	?AGKCommand903@@3P6AHXZA			; AGKCommand903
PUBLIC	?AGKCommand904@@3P6AHXZA			; AGKCommand904
PUBLIC	?AGKCommand905@@3P6AHXZA			; AGKCommand905
PUBLIC	?AGKCommand906@@3P6AHXZA			; AGKCommand906
PUBLIC	?AGKCommand907@@3P6AHXZA			; AGKCommand907
PUBLIC	?AGKCommand908@@3P6AHXZA			; AGKCommand908
PUBLIC	?AGKCommand909@@3P6AHXZA			; AGKCommand909
PUBLIC	?AGKCommand910@@3P6AHXZA			; AGKCommand910
PUBLIC	?AGKCommand911@@3P6AHXZA			; AGKCommand911
PUBLIC	?AGKCommand912@@3P6AHXZA			; AGKCommand912
PUBLIC	?AGKCommand913@@3P6AHXZA			; AGKCommand913
PUBLIC	?AGKCommand914@@3P6AHXZA			; AGKCommand914
PUBLIC	?AGKCommand915@@3P6AHXZA			; AGKCommand915
PUBLIC	?AGKCommand916@@3P6AHXZA			; AGKCommand916
PUBLIC	?AGKCommand917@@3P6AMXZA			; AGKCommand917
PUBLIC	?AGKCommand918@@3P6AMXZA			; AGKCommand918
PUBLIC	?AGKCommand919@@3P6AMXZA			; AGKCommand919
PUBLIC	?AGKCommand920@@3P6AMXZA			; AGKCommand920
PUBLIC	?AGKCommand921@@3P6AMXZA			; AGKCommand921
PUBLIC	?AGKCommand922@@3P6AMXZA			; AGKCommand922
PUBLIC	?AGKCommand923@@3P6AMXZA			; AGKCommand923
PUBLIC	?AGKCommand924@@3P6AMXZA			; AGKCommand924
PUBLIC	?AGKCommand925@@3P6AMXZA			; AGKCommand925
PUBLIC	?AGKCommand926@@3P6AMXZA			; AGKCommand926
PUBLIC	?AGKCommand927@@3P6AMXZA			; AGKCommand927
PUBLIC	?AGKCommand928@@3P6AMXZA			; AGKCommand928
PUBLIC	?AGKCommand929@@3P6AMXZA			; AGKCommand929
PUBLIC	?AGKCommand930@@3P6AMXZA			; AGKCommand930
PUBLIC	?AGKCommand931@@3P6AMXZA			; AGKCommand931
PUBLIC	?AGKCommand932@@3P6AMXZA			; AGKCommand932
PUBLIC	?AGKCommand933@@3P6AMXZA			; AGKCommand933
PUBLIC	?AGKCommand934@@3P6AMXZA			; AGKCommand934
PUBLIC	?AGKCommand935@@3P6AMXZA			; AGKCommand935
PUBLIC	?AGKCommand936@@3P6AXXZA			; AGKCommand936
PUBLIC	?AGKCommand937@@3P6AHI@ZA			; AGKCommand937
PUBLIC	?AGKCommand938@@3P6AHI@ZA			; AGKCommand938
PUBLIC	?AGKCommand939@@3P6AMI@ZA			; AGKCommand939
PUBLIC	?AGKCommand940@@3P6AMI@ZA			; AGKCommand940
PUBLIC	?AGKCommand941@@3P6AMI@ZA			; AGKCommand941
PUBLIC	?AGKCommand942@@3P6AMI@ZA			; AGKCommand942
PUBLIC	?AGKCommand943@@3P6AMI@ZA			; AGKCommand943
PUBLIC	?AGKCommand944@@3P6AMI@ZA			; AGKCommand944
PUBLIC	?AGKCommand945@@3P6AHII@ZA			; AGKCommand945
PUBLIC	?AGKCommand946@@3P6AHII@ZA			; AGKCommand946
PUBLIC	?AGKCommand947@@3P6AHII@ZA			; AGKCommand947
PUBLIC	?AGKCommand948@@3P6AXM@ZA			; AGKCommand948
PUBLIC	?AGKCommand949@@3P6AXIMMM@ZA			; AGKCommand949
PUBLIC	?AGKCommand950@@3P6AXI@ZA			; AGKCommand950
PUBLIC	?AGKCommand951@@3P6AHI@ZA			; AGKCommand951
PUBLIC	?AGKCommand952@@3P6AMI@ZA			; AGKCommand952
PUBLIC	?AGKCommand953@@3P6AMI@ZA			; AGKCommand953
PUBLIC	?AGKCommand954@@3P6AXIII@ZA			; AGKCommand954
PUBLIC	?AGKCommand955@@3P6AXIMM@ZA			; AGKCommand955
PUBLIC	?AGKCommand956@@3P6AXIM@ZA			; AGKCommand956
PUBLIC	?AGKCommand957@@3P6AXIH@ZA			; AGKCommand957
PUBLIC	?AGKCommand958@@3P6AXIH@ZA			; AGKCommand958
PUBLIC	?AGKCommand959@@3P6AXII@ZA			; AGKCommand959
PUBLIC	?AGKCommand960@@3P6AXII@ZA			; AGKCommand960
PUBLIC	?AGKCommand961@@3P6AXM@ZA			; AGKCommand961
PUBLIC	?AGKCommand962@@3P6AXIMMM@ZA			; AGKCommand962
PUBLIC	?AGKCommand963@@3P6AXI@ZA			; AGKCommand963
PUBLIC	?AGKCommand964@@3P6AHI@ZA			; AGKCommand964
PUBLIC	?AGKCommand965@@3P6AHI@ZA			; AGKCommand965
PUBLIC	?AGKCommand966@@3P6AHI@ZA			; AGKCommand966
PUBLIC	?AGKCommand967@@3P6AHI@ZA			; AGKCommand967
PUBLIC	?AGKCommand968@@3P6AXIIII@ZA			; AGKCommand968
PUBLIC	?AGKCommand969@@3P6AXII@ZA			; AGKCommand969
PUBLIC	?AGKCommand970@@3P6AXIMM@ZA			; AGKCommand970
PUBLIC	?AGKCommand971@@3P6AXIM@ZA			; AGKCommand971
PUBLIC	?AGKCommand972@@3P6AXIMM@ZA			; AGKCommand972
PUBLIC	?AGKCommand973@@3P6AXIH@ZA			; AGKCommand973
PUBLIC	?AGKCommand974@@3P6AXIH@ZA			; AGKCommand974
PUBLIC	?AGKCommand975@@3P6AXII@ZA			; AGKCommand975
PUBLIC	?AGKCommand976@@3P6AXII@ZA			; AGKCommand976
PUBLIC	?AGKCommand977@@3P6AXIPBD@ZA			; AGKCommand977
PUBLIC	?AGKCommand978@@3P6AHI@ZA			; AGKCommand978
PUBLIC	?AGKCommand979@@3P6AHI@ZA			; AGKCommand979
PUBLIC	?AGKCommand980@@3P6AHI@ZA			; AGKCommand980
PUBLIC	?AGKCommand981@@3P6AHXZA			; AGKCommand981
PUBLIC	?AGKCommand982@@3P6AMXZA			; AGKCommand982
PUBLIC	?AGKCommand983@@3P6AMXZA			; AGKCommand983
PUBLIC	?AGKCommand984@@3P6AMXZA			; AGKCommand984
PUBLIC	?AGKCommand985@@3P6AMXZA			; AGKCommand985
PUBLIC	?AGKCommand986@@3P6AHXZA			; AGKCommand986
PUBLIC	?AGKCommand987@@3P6AHXZA			; AGKCommand987
PUBLIC	?AGKCommand988@@3P6AHXZA			; AGKCommand988
PUBLIC	?AGKCommand989@@3P6AMXZA			; AGKCommand989
PUBLIC	?AGKCommand990@@3P6AMXZA			; AGKCommand990
PUBLIC	?AGKCommand991@@3P6AMXZA			; AGKCommand991
PUBLIC	?AGKCommand992@@3P6AMXZA			; AGKCommand992
PUBLIC	?AGKCommand993@@3P6AXM@ZA			; AGKCommand993
PUBLIC	?AGKCommand994@@3P6AXMMM@ZA			; AGKCommand994
PUBLIC	?AGKCommand995@@3P6AHI@ZA			; AGKCommand995
PUBLIC	?AGKCommand996@@3P6AHI@ZA			; AGKCommand996
PUBLIC	?AGKCommand997@@3P6AHI@ZA			; AGKCommand997
PUBLIC	?AGKCommand998@@3P6AXIMMM@ZA			; AGKCommand998
PUBLIC	?AGKCommand999@@3P6AXXZA			; AGKCommand999
PUBLIC	?AGKCommand1000@@3P6AXPBD@ZA			; AGKCommand1000
PUBLIC	?AGKCommand1001@@3P6AXXZA			; AGKCommand1001
PUBLIC	?AGKCommand1002@@3P6AHXZA			; AGKCommand1002
PUBLIC	?AGKCommand1003@@3P6AHXZA			; AGKCommand1003
PUBLIC	?AGKCommand1004@@3P6AHXZA			; AGKCommand1004
PUBLIC	?AGKCommand1005@@3P6APADXZA			; AGKCommand1005
PUBLIC	?AGKCommand1006@@3P6AIXZA			; AGKCommand1006
PUBLIC	?AGKCommand1007@@3P6AXM@ZA			; AGKCommand1007
PUBLIC	?AGKCommand1008@@3P6AXH@ZA			; AGKCommand1008
PUBLIC	?AGKCommand1009@@3P6AXI@ZA			; AGKCommand1009
PUBLIC	?AGKCommand1010@@3P6AIXZA			; AGKCommand1010
PUBLIC	?AGKCommand1011@@3P6AHI@ZA			; AGKCommand1011
PUBLIC	?AGKCommand1012@@3P6AXI@ZA			; AGKCommand1012
PUBLIC	?AGKCommand1013@@3P6AHI@ZA			; AGKCommand1013
PUBLIC	?AGKCommand1014@@3P6AIXZA			; AGKCommand1014
PUBLIC	?AGKCommand1015@@3P6AXIMM@ZA			; AGKCommand1015
PUBLIC	?AGKCommand1016@@3P6AXIMM@ZA			; AGKCommand1016
PUBLIC	?AGKCommand1017@@3P6AXIH@ZA			; AGKCommand1017
PUBLIC	?AGKCommand1018@@3P6AXIM@ZA			; AGKCommand1018
PUBLIC	?AGKCommand1019@@3P6AXIIIII@ZA			; AGKCommand1019
PUBLIC	?AGKCommand1020@@3P6AXIIIII@ZA			; AGKCommand1020
PUBLIC	?AGKCommand1021@@3P6AXIPBD@ZA			; AGKCommand1021
PUBLIC	?AGKCommand1022@@3P6AXIIII@ZA			; AGKCommand1022
PUBLIC	?AGKCommand1023@@3P6AXIIII@ZA			; AGKCommand1023
PUBLIC	?AGKCommand1024@@3P6AXII@ZA			; AGKCommand1024
PUBLIC	?AGKCommand1025@@3P6AXII@ZA			; AGKCommand1025
PUBLIC	?AGKCommand1026@@3P6AXII@ZA			; AGKCommand1026
PUBLIC	?AGKCommand1027@@3P6AXIM@ZA			; AGKCommand1027
PUBLIC	?AGKCommand1028@@3P6AXIH@ZA			; AGKCommand1028
PUBLIC	?AGKCommand1029@@3P6AXIH@ZA			; AGKCommand1029
PUBLIC	?AGKCommand1030@@3P6AXIH@ZA			; AGKCommand1030
PUBLIC	?AGKCommand1031@@3P6AXIH@ZA			; AGKCommand1031
PUBLIC	?AGKCommand1032@@3P6AXII@ZA			; AGKCommand1032
PUBLIC	?AGKCommand1033@@3P6AXII@ZA			; AGKCommand1033
PUBLIC	?AGKCommand1034@@3P6AXIM@ZA			; AGKCommand1034
PUBLIC	?AGKCommand1035@@3P6AXIM@ZA			; AGKCommand1035
PUBLIC	?AGKCommand1036@@3P6AXII@ZA			; AGKCommand1036
PUBLIC	?AGKCommand1037@@3P6AXII@ZA			; AGKCommand1037
PUBLIC	?AGKCommand1038@@3P6AXIH@ZA			; AGKCommand1038
PUBLIC	?AGKCommand1039@@3P6AXIMMMM@ZA			; AGKCommand1039
PUBLIC	?AGKCommand1040@@3P6AXIH@ZA			; AGKCommand1040
PUBLIC	?AGKCommand1041@@3P6AXIH@ZA			; AGKCommand1041
PUBLIC	?AGKCommand1042@@3P6AXIH@ZA			; AGKCommand1042
PUBLIC	?AGKCommand1043@@3P6AXIH@ZA			; AGKCommand1043
PUBLIC	?AGKCommand1044@@3P6APADI@ZA			; AGKCommand1044
PUBLIC	?AGKCommand1045@@3P6AMI@ZA			; AGKCommand1045
PUBLIC	?AGKCommand1046@@3P6AMI@ZA			; AGKCommand1046
PUBLIC	?AGKCommand1047@@3P6AMI@ZA			; AGKCommand1047
PUBLIC	?AGKCommand1048@@3P6AMI@ZA			; AGKCommand1048
PUBLIC	?AGKCommand1049@@3P6AHI@ZA			; AGKCommand1049
PUBLIC	?AGKCommand1050@@3P6AHI@ZA			; AGKCommand1050
PUBLIC	?AGKCommand1051@@3P6AHI@ZA			; AGKCommand1051
PUBLIC	?AGKCommand1052@@3P6AHI@ZA			; AGKCommand1052
PUBLIC	?AGKCommand1053@@3P6AHI@ZA			; AGKCommand1053
PUBLIC	?AGKCommand1054@@3P6AIXZA			; AGKCommand1054
PUBLIC	?AGKCommand1055@@3P6AIXZA			; AGKCommand1055
PUBLIC	?AGKCommand1056@@3P6AIXZA			; AGKCommand1056
PUBLIC	?AGKCommand1057@@3P6AIXZA			; AGKCommand1057
PUBLIC	?AGKCommand1058@@3P6AIXZA			; AGKCommand1058
PUBLIC	?AGKCommand1059@@3P6AIXZA			; AGKCommand1059
PUBLIC	?AGKCommand1060@@3P6AIXZA			; AGKCommand1060
PUBLIC	?AGKCommand1061@@3P6AMXZA			; AGKCommand1061
PUBLIC	?AGKCommand1062@@3P6AMXZA			; AGKCommand1062
PUBLIC	?AGKCommand1063@@3P6AMXZA			; AGKCommand1063
PUBLIC	?AGKCommand1064@@3P6AMXZA			; AGKCommand1064
PUBLIC	?AGKCommand1065@@3P6AIXZA			; AGKCommand1065
PUBLIC	?AGKCommand1066@@3P6AIXZA			; AGKCommand1066
PUBLIC	?AGKCommand1067@@3P6APADI@ZA			; AGKCommand1067
PUBLIC	?AGKCommand1068@@3P6AMXZA			; AGKCommand1068
PUBLIC	?AGKCommand1069@@3P6AHH@ZA			; AGKCommand1069
PUBLIC	?AGKCommand1070@@3P6AHHHHHHH@ZA			; AGKCommand1070
PUBLIC	?AGKCommand1071@@3P6AHH@ZA			; AGKCommand1071
PUBLIC	?AGKCommand1072@@3P6AHH@ZA			; AGKCommand1072
PUBLIC	?AGKCommand1073@@3P6AHH@ZA			; AGKCommand1073
PUBLIC	?AGKCommand1074@@3P6AHH@ZA			; AGKCommand1074
PUBLIC	?AGKCommand1075@@3P6AHH@ZA			; AGKCommand1075
PUBLIC	?AGKCommand1076@@3P6AHH@ZA			; AGKCommand1076
PUBLIC	?AGKCommand1077@@3P6AXPBD@ZA			; AGKCommand1077
PUBLIC	?AGKCommand1078@@3P6AXPBD@ZA			; AGKCommand1078
PUBLIC	?AGKCommand1079@@3P6AXPBD@ZA			; AGKCommand1079
PUBLIC	?AGKCommand1080@@3P6AXPBD0@ZA			; AGKCommand1080
PUBLIC	?AGKCommand1081@@3P6AXPBD@ZA			; AGKCommand1081
PUBLIC	?AGKCommand1082@@3P6AXH@ZA			; AGKCommand1082
PUBLIC	?AGKCommand1083@@3P6AXH@ZA			; AGKCommand1083
PUBLIC	?AGKCommand1084@@3P6AXXZA			; AGKCommand1084
PUBLIC	?AGKCommand1085@@3P6AXXZA			; AGKCommand1085
PUBLIC	?AGKCommand1086@@3P6AXXZA			; AGKCommand1086
PUBLIC	?AGKCommand1087@@3P6AHXZA			; AGKCommand1087
PUBLIC	?AGKCommand1088@@3P6AHXZA			; AGKCommand1088
PUBLIC	?AGKCommand1089@@3P6AHXZA			; AGKCommand1089
PUBLIC	?AGKCommand1090@@3P6AXXZA			; AGKCommand1090
PUBLIC	?AGKCommand1091@@3P6AHXZA			; AGKCommand1091
PUBLIC	?AGKCommand1092@@3P6AHXZA			; AGKCommand1092
PUBLIC	?AGKCommand1093@@3P6AXXZA			; AGKCommand1093
PUBLIC	?AGKCommand1094@@3P6AXXZA			; AGKCommand1094
PUBLIC	?AGKCommand1095@@3P6AXXZA			; AGKCommand1095
PUBLIC	?AGKCommand1096@@3P6AHXZA			; AGKCommand1096
PUBLIC	?AGKCommand1097@@3P6AHXZA			; AGKCommand1097
PUBLIC	?AGKCommand1098@@3P6AXXZA			; AGKCommand1098
PUBLIC	?AGKCommand1099@@3P6AXXZA			; AGKCommand1099
PUBLIC	?AGKCommand1100@@3P6AXHHHH@ZA			; AGKCommand1100
PUBLIC	?AGKCommand1101@@3P6AXHHHHMM@ZA			; AGKCommand1101
PUBLIC	?AGKCommand1102@@3P6AXMMM@ZA			; AGKCommand1102
PUBLIC	?AGKCommand1103@@3P6AXHHM@ZA			; AGKCommand1103
PUBLIC	?AGKCommand1104@@3P6AXHHMMM@ZA			; AGKCommand1104
PUBLIC	?AGKCommand1105@@3P6AXH@ZA			; AGKCommand1105
PUBLIC	?AGKCommand1106@@3P6AXXZA			; AGKCommand1106
PUBLIC	?AGKCommand1107@@3P6AXXZA			; AGKCommand1107
PUBLIC	?AGKCommand1108@@3P6AXIPBD@ZA			; AGKCommand1108
PUBLIC	?AGKCommand1109@@3P6AIPBD@ZA			; AGKCommand1109
PUBLIC	?AGKCommand1110@@3P6AXIPBD0@ZA			; AGKCommand1110
PUBLIC	?AGKCommand1111@@3P6AXI@ZA			; AGKCommand1111
PUBLIC	?AGKCommand1112@@3P6AXPBD0@ZA			; AGKCommand1112
PUBLIC	?AGKCommand1113@@3P6AXPBD@ZA			; AGKCommand1113
PUBLIC	?AGKCommand1114@@3P6AXPBD@ZA			; AGKCommand1114
PUBLIC	?AGKCommand1115@@3P6AXPBD0@ZA			; AGKCommand1115
PUBLIC	?AGKCommand1116@@3P6AXPBD00@ZA			; AGKCommand1116
PUBLIC	?AGKCommand1117@@3P6AXXZA			; AGKCommand1117
PUBLIC	?AGKCommand1118@@3P6AXPBD0@ZA			; AGKCommand1118
PUBLIC	?AGKCommand1119@@3P6AXPBD@ZA			; AGKCommand1119
PUBLIC	?AGKCommand1120@@3P6AXPBDH@ZA			; AGKCommand1120
PUBLIC	?AGKCommand1121@@3P6AXXZA			; AGKCommand1121
PUBLIC	?AGKCommand1122@@3P6AHH@ZA			; AGKCommand1122
PUBLIC	?AGKCommand1123@@3P6AXH@ZA			; AGKCommand1123
PUBLIC	?AGKCommand1124@@3P6APADH@ZA			; AGKCommand1124
PUBLIC	?AGKCommand1125@@3P6APADH@ZA			; AGKCommand1125
PUBLIC	?AGKCommand1126@@3P6AHXZA			; AGKCommand1126
PUBLIC	?AGKCommand1127@@3P6AXXZA			; AGKCommand1127
PUBLIC	?AGKCommand1128@@3P6APADH@ZA			; AGKCommand1128
PUBLIC	?AGKCommand1129@@3P6AXPBD0@ZA			; AGKCommand1129
PUBLIC	?AGKCommand1130@@3P6AXPBD@ZA			; AGKCommand1130
PUBLIC	?AGKCommand1131@@3P6AXPBD@ZA			; AGKCommand1131
PUBLIC	?AGKCommand1132@@3P6AHXZA			; AGKCommand1132
PUBLIC	?AGKCommand1133@@3P6APADXZA			; AGKCommand1133
PUBLIC	?AGKCommand1134@@3P6APADXZA			; AGKCommand1134
PUBLIC	?AGKCommand1135@@3P6APADXZA			; AGKCommand1135
PUBLIC	?AGKCommand1136@@3P6AXXZA			; AGKCommand1136
PUBLIC	?AGKCommand1137@@3P6AXXZA			; AGKCommand1137
PUBLIC	?AGKCommand1138@@3P6AXPBD0000@ZA		; AGKCommand1138
PUBLIC	?AGKCommand1139@@3P6AXPBD00000@ZA		; AGKCommand1139
PUBLIC	?AGKCommand1140@@3P6AXPBD0@ZA			; AGKCommand1140
PUBLIC	?AGKCommand1141@@3P6AXPBDHHHH@ZA		; AGKCommand1141
PUBLIC	?AGKCommand1142@@3P6AXXZA			; AGKCommand1142
PUBLIC	?AGKCommand1143@@3P6AXXZA			; AGKCommand1143
PUBLIC	?AGKCommand1144@@3P6AHXZA			; AGKCommand1144
PUBLIC	?AGKCommand1145@@3P6AHXZA			; AGKCommand1145
PUBLIC	?AGKCommand1146@@3P6APADH@ZA			; AGKCommand1146
PUBLIC	?AGKCommand1147@@3P6APADH@ZA			; AGKCommand1147
PUBLIC	?AGKCommand1148@@3P6AXH@ZA			; AGKCommand1148
PUBLIC	?AGKCommand1149@@3P6AHXZA			; AGKCommand1149
PUBLIC	?AGKCommand1150@@3P6APADXZA			; AGKCommand1150
PUBLIC	?AGKCommand1151@@3P6AXPBD00@ZA			; AGKCommand1151
PUBLIC	?AGKCommand1152@@3P6AHXZA			; AGKCommand1152
PUBLIC	?AGKCommand1153@@3P6APADXZA			; AGKCommand1153
PUBLIC	?AGKCommand1154@@3P6AXXZA			; AGKCommand1154
PUBLIC	?AGKCommand1155@@3P6AXHHPBD@ZA			; AGKCommand1155
PUBLIC	?AGKCommand1156@@3P6AXH@ZA			; AGKCommand1156
PUBLIC	?AGKCommand1157@@3P6AHH@ZA			; AGKCommand1157
PUBLIC	?AGKCommand1158@@3P6AHH@ZA			; AGKCommand1158
PUBLIC	?AGKCommand1159@@3P6APADH@ZA			; AGKCommand1159
PUBLIC	?AGKCommand1160@@3P6AIIII@ZA			; AGKCommand1160
PUBLIC	?AGKCommand1161@@3P6AII@ZA			; AGKCommand1161
PUBLIC	?AGKCommand1162@@3P6AII@ZA			; AGKCommand1162
PUBLIC	?AGKCommand1163@@3P6AII@ZA			; AGKCommand1163
PUBLIC	?AGKCommand1164@@3P6AXMMMMIII@ZA		; AGKCommand1164
PUBLIC	?AGKCommand1165@@3P6AXMMMMII@ZA			; AGKCommand1165
PUBLIC	?AGKCommand1166@@3P6AXMMMMIIIIH@ZA		; AGKCommand1166
PUBLIC	?AGKCommand1167@@3P6AXMMMMIIH@ZA		; AGKCommand1167
PUBLIC	?AGKCommand1168@@3P6AII@ZA			; AGKCommand1168
PUBLIC	?AGKCommand1169@@3P6AXII@ZA			; AGKCommand1169
PUBLIC	?AGKCommand1170@@3P6AHI@ZA			; AGKCommand1170
PUBLIC	?AGKCommand1171@@3P6AXI@ZA			; AGKCommand1171
PUBLIC	?AGKCommand1172@@3P6AXIIIII@ZA			; AGKCommand1172
PUBLIC	?AGKCommand1173@@3P6AHI@ZA			; AGKCommand1173
PUBLIC	?AGKCommand1174@@3P6AHII@ZA			; AGKCommand1174
PUBLIC	?AGKCommand1175@@3P6AHII@ZA			; AGKCommand1175
PUBLIC	?AGKCommand1176@@3P6AHII@ZA			; AGKCommand1176
PUBLIC	?AGKCommand1177@@3P6AHII@ZA			; AGKCommand1177
PUBLIC	?AGKCommand1178@@3P6AMII@ZA			; AGKCommand1178
PUBLIC	?AGKCommand1179@@3P6APADIII@ZA			; AGKCommand1179
PUBLIC	?AGKCommand1180@@3P6AXIIH@ZA			; AGKCommand1180
PUBLIC	?AGKCommand1181@@3P6AXIIH@ZA			; AGKCommand1181
PUBLIC	?AGKCommand1182@@3P6AXIIH@ZA			; AGKCommand1182
PUBLIC	?AGKCommand1183@@3P6AXIIH@ZA			; AGKCommand1183
PUBLIC	?AGKCommand1184@@3P6AXIIM@ZA			; AGKCommand1184
PUBLIC	?AGKCommand1185@@3P6AXIIPBD@ZA			; AGKCommand1185
PUBLIC	?AGKCommand1186@@3P6AXII@ZA			; AGKCommand1186
PUBLIC	?AGKCommand1187@@3P6AII@ZA			; AGKCommand1187
PUBLIC	?AGKCommand1188@@3P6AXII@ZA			; AGKCommand1188
PUBLIC	?AGKCommand1189@@3P6AII@ZA			; AGKCommand1189
PUBLIC	?AGKCommand1190@@3P6AXII@ZA			; AGKCommand1190
PUBLIC	?AGKCommand1191@@3P6AII@ZA			; AGKCommand1191
PUBLIC	?AGKCommand1192@@3P6AXII@ZA			; AGKCommand1192
PUBLIC	?AGKCommand1193@@3P6AII@ZA			; AGKCommand1193
PUBLIC	?AGKCommand1194@@3P6AXIPBD@ZA			; AGKCommand1194
PUBLIC	?AGKCommand1195@@3P6AIPBD@ZA			; AGKCommand1195
PUBLIC	?AGKCommand1196@@3P6AXPBDI@ZA			; AGKCommand1196
PUBLIC	?AGKCommand1197@@3P6AXIII@ZA			; AGKCommand1197
PUBLIC	?AGKCommand1198@@3P6AIII@ZA			; AGKCommand1198
PUBLIC	?AGKCommand1199@@3P6AXII@ZA			; AGKCommand1199
PUBLIC	?AGKCommand1200@@3P6AII@ZA			; AGKCommand1200
PUBLIC	?AGKCommand1201@@3P6AXIII@ZA			; AGKCommand1201
PUBLIC	?AGKCommand1202@@3P6AXII@ZA			; AGKCommand1202
PUBLIC	?AGKCommand1203@@3P6AXIIMMM@ZA			; AGKCommand1203
PUBLIC	?AGKCommand1204@@3P6AXIIMMM@ZA			; AGKCommand1204
PUBLIC	?AGKCommand1205@@3P6AXIIMM@ZA			; AGKCommand1205
PUBLIC	?AGKCommand1206@@3P6AMII@ZA			; AGKCommand1206
PUBLIC	?AGKCommand1207@@3P6AMII@ZA			; AGKCommand1207
PUBLIC	?AGKCommand1208@@3P6AMII@ZA			; AGKCommand1208
PUBLIC	?AGKCommand1209@@3P6AMII@ZA			; AGKCommand1209
PUBLIC	?AGKCommand1210@@3P6AMII@ZA			; AGKCommand1210
PUBLIC	?AGKCommand1211@@3P6AMII@ZA			; AGKCommand1211
PUBLIC	?AGKCommand1212@@3P6AMII@ZA			; AGKCommand1212
PUBLIC	?AGKCommand1213@@3P6AMII@ZA			; AGKCommand1213
PUBLIC	?AGKCommand1214@@3P6AXH@ZA			; AGKCommand1214
PUBLIC	?AGKCommand1215@@3P6AXIMMM@ZA			; AGKCommand1215
PUBLIC	?AGKCommand1216@@3P6AIMMM@ZA			; AGKCommand1216
PUBLIC	?AGKCommand1217@@3P6AXIMMH@ZA			; AGKCommand1217
PUBLIC	?AGKCommand1218@@3P6AIMMH@ZA			; AGKCommand1218
PUBLIC	?AGKCommand1219@@3P6AXIMHH@ZA			; AGKCommand1219
PUBLIC	?AGKCommand1220@@3P6AIMHH@ZA			; AGKCommand1220
PUBLIC	?AGKCommand1221@@3P6AXIMMH@ZA			; AGKCommand1221
PUBLIC	?AGKCommand1222@@3P6AIMMH@ZA			; AGKCommand1222
PUBLIC	?AGKCommand1223@@3P6AXIMMH@ZA			; AGKCommand1223
PUBLIC	?AGKCommand1224@@3P6AIMMH@ZA			; AGKCommand1224
PUBLIC	?AGKCommand1225@@3P6AXIMM@ZA			; AGKCommand1225
PUBLIC	?AGKCommand1226@@3P6AIMM@ZA			; AGKCommand1226
PUBLIC	?AGKCommand1227@@3P6AXI@ZA			; AGKCommand1227
PUBLIC	?AGKCommand1228@@3P6AIXZA			; AGKCommand1228
PUBLIC	?AGKCommand1229@@3P6AIPBDMMMHH@ZA		; AGKCommand1229
PUBLIC	?AGKCommand1230@@3P6AXIPBDMMMHH@ZA		; AGKCommand1230
PUBLIC	?AGKCommand1231@@3P6AIII@ZA			; AGKCommand1231
PUBLIC	?AGKCommand1232@@3P6AXIII@ZA			; AGKCommand1232
PUBLIC	?AGKCommand1233@@3P6AIPBD@ZA			; AGKCommand1233
PUBLIC	?AGKCommand1234@@3P6AIPBDM@ZA			; AGKCommand1234
PUBLIC	?AGKCommand1235@@3P6AXIPBD@ZA			; AGKCommand1235
PUBLIC	?AGKCommand1236@@3P6AXIPBDM@ZA			; AGKCommand1236
PUBLIC	?AGKCommand1237@@3P6AIPBD@ZA			; AGKCommand1237
PUBLIC	?AGKCommand1238@@3P6AXIPBD@ZA			; AGKCommand1238
PUBLIC	?AGKCommand1239@@3P6AXIPBD@ZA			; AGKCommand1239
PUBLIC	?AGKCommand1240@@3P6AII@ZA			; AGKCommand1240
PUBLIC	?AGKCommand1241@@3P6AXII@ZA			; AGKCommand1241
PUBLIC	?AGKCommand1242@@3P6AII@ZA			; AGKCommand1242
PUBLIC	?AGKCommand1243@@3P6AXII@ZA			; AGKCommand1243
PUBLIC	?AGKCommand1244@@3P6AHI@ZA			; AGKCommand1244
PUBLIC	?AGKCommand1245@@3P6AXI@ZA			; AGKCommand1245
PUBLIC	?AGKCommand1246@@3P6AXI@ZA			; AGKCommand1246
PUBLIC	?AGKCommand1247@@3P6AXXZA			; AGKCommand1247
PUBLIC	?AGKCommand1248@@3P6AII@ZA			; AGKCommand1248
PUBLIC	?AGKCommand1249@@3P6AIIH@ZA			; AGKCommand1249
PUBLIC	?AGKCommand1250@@3P6AII@ZA			; AGKCommand1250
PUBLIC	?AGKCommand1251@@3P6AIIPBD@ZA			; AGKCommand1251
PUBLIC	?AGKCommand1252@@3P6AII@ZA			; AGKCommand1252
PUBLIC	?AGKCommand1253@@3P6APADII@ZA			; AGKCommand1253
PUBLIC	?AGKCommand1254@@3P6AXIIII@ZA			; AGKCommand1254
PUBLIC	?AGKCommand1255@@3P6AXIII@ZA			; AGKCommand1255
PUBLIC	?AGKCommand1256@@3P6AXIII@ZA			; AGKCommand1256
PUBLIC	?AGKCommand1257@@3P6APADII@ZA			; AGKCommand1257
PUBLIC	?AGKCommand1258@@3P6APADII@ZA			; AGKCommand1258
PUBLIC	?AGKCommand1259@@3P6AXIIIMM@ZA			; AGKCommand1259
PUBLIC	?AGKCommand1260@@3P6AXIIIMM@ZA			; AGKCommand1260
PUBLIC	?AGKCommand1261@@3P6AMII@ZA			; AGKCommand1261
PUBLIC	?AGKCommand1262@@3P6AMII@ZA			; AGKCommand1262
PUBLIC	?AGKCommand1263@@3P6AMII@ZA			; AGKCommand1263
PUBLIC	?AGKCommand1264@@3P6AMII@ZA			; AGKCommand1264
PUBLIC	?AGKCommand1265@@3P6AMII@ZA			; AGKCommand1265
PUBLIC	?AGKCommand1266@@3P6AMII@ZA			; AGKCommand1266
PUBLIC	?AGKCommand1267@@3P6AXII@ZA			; AGKCommand1267
PUBLIC	?AGKCommand1268@@3P6AXIII@ZA			; AGKCommand1268
PUBLIC	?AGKCommand1269@@3P6AHI@ZA			; AGKCommand1269
PUBLIC	?AGKCommand1270@@3P6APADIH@ZA			; AGKCommand1270
PUBLIC	?AGKCommand1271@@3P6AXIPBDMMHM@ZA		; AGKCommand1271
PUBLIC	?AGKCommand1272@@3P6AXIPBDMM@ZA			; AGKCommand1272
PUBLIC	?AGKCommand1273@@3P6AXI@ZA			; AGKCommand1273
PUBLIC	?AGKCommand1274@@3P6AXI@ZA			; AGKCommand1274
PUBLIC	?AGKCommand1275@@3P6AXIM@ZA			; AGKCommand1275
PUBLIC	?AGKCommand1276@@3P6AHI@ZA			; AGKCommand1276
PUBLIC	?AGKCommand1277@@3P6AHI@ZA			; AGKCommand1277
PUBLIC	?AGKCommand1278@@3P6AMI@ZA			; AGKCommand1278
PUBLIC	?AGKCommand1279@@3P6AMIPBD@ZA			; AGKCommand1279
PUBLIC	?AGKCommand1280@@3P6AXIIMMM@ZA			; AGKCommand1280
PUBLIC	?AGKCommand1281@@3P6AXIIMMM@ZA			; AGKCommand1281
PUBLIC	?AGKCommand1282@@3P6AXIIMMMM@ZA			; AGKCommand1282
PUBLIC	?AGKCommand1283@@3P6AXIIMMMM@ZA			; AGKCommand1283
PUBLIC	?AGKCommand1284@@3P6AXIIH@ZA			; AGKCommand1284
PUBLIC	?AGKCommand1285@@3P6AXIIM@ZA			; AGKCommand1285
PUBLIC	?AGKCommand1286@@3P6AXIIM@ZA			; AGKCommand1286
PUBLIC	?AGKCommand1287@@3P6AXIIM@ZA			; AGKCommand1287
PUBLIC	?AGKCommand1288@@3P6APADII@ZA			; AGKCommand1288
PUBLIC	?AGKCommand1289@@3P6AMII@ZA			; AGKCommand1289
PUBLIC	?AGKCommand1290@@3P6AMII@ZA			; AGKCommand1290
PUBLIC	?AGKCommand1291@@3P6AMII@ZA			; AGKCommand1291
PUBLIC	?AGKCommand1292@@3P6AMII@ZA			; AGKCommand1292
PUBLIC	?AGKCommand1293@@3P6AMII@ZA			; AGKCommand1293
PUBLIC	?AGKCommand1294@@3P6AMII@ZA			; AGKCommand1294
PUBLIC	?AGKCommand1295@@3P6AMII@ZA			; AGKCommand1295
PUBLIC	?AGKCommand1296@@3P6AMII@ZA			; AGKCommand1296
PUBLIC	?AGKCommand1297@@3P6AMII@ZA			; AGKCommand1297
PUBLIC	?AGKCommand1298@@3P6AMII@ZA			; AGKCommand1298
PUBLIC	?AGKCommand1299@@3P6AMII@ZA			; AGKCommand1299
PUBLIC	?AGKCommand1300@@3P6AMII@ZA			; AGKCommand1300
PUBLIC	?AGKCommand1301@@3P6AMII@ZA			; AGKCommand1301
PUBLIC	?AGKCommand1302@@3P6AMII@ZA			; AGKCommand1302
PUBLIC	?AGKCommand1303@@3P6AMII@ZA			; AGKCommand1303
PUBLIC	?AGKCommand1304@@3P6AMII@ZA			; AGKCommand1304
PUBLIC	?AGKCommand1305@@3P6AMII@ZA			; AGKCommand1305
PUBLIC	?AGKCommand1306@@3P6AMII@ZA			; AGKCommand1306
PUBLIC	?AGKCommand1307@@3P6AMII@ZA			; AGKCommand1307
PUBLIC	?AGKCommand1308@@3P6AMII@ZA			; AGKCommand1308
PUBLIC	?AGKCommand1309@@3P6AXIMMM@ZA			; AGKCommand1309
PUBLIC	?AGKCommand1310@@3P6AXIMMM@ZA			; AGKCommand1310
PUBLIC	?AGKCommand1311@@3P6AXIMMMM@ZA			; AGKCommand1311
PUBLIC	?AGKCommand1312@@3P6AXIMMM@ZA			; AGKCommand1312
PUBLIC	?AGKCommand1313@@3P6AXIMMM@ZA			; AGKCommand1313
PUBLIC	?AGKCommand1314@@3P6AXIM@ZA			; AGKCommand1314
PUBLIC	?AGKCommand1315@@3P6AXIM@ZA			; AGKCommand1315
PUBLIC	?AGKCommand1316@@3P6AXIM@ZA			; AGKCommand1316
PUBLIC	?AGKCommand1317@@3P6AXIM@ZA			; AGKCommand1317
PUBLIC	?AGKCommand1318@@3P6AXIM@ZA			; AGKCommand1318
PUBLIC	?AGKCommand1319@@3P6AXIM@ZA			; AGKCommand1319
PUBLIC	?AGKCommand1320@@3P6AXIM@ZA			; AGKCommand1320
PUBLIC	?AGKCommand1321@@3P6AXIM@ZA			; AGKCommand1321
PUBLIC	?AGKCommand1322@@3P6AXIM@ZA			; AGKCommand1322
PUBLIC	?AGKCommand1323@@3P6AMI@ZA			; AGKCommand1323
PUBLIC	?AGKCommand1324@@3P6AMI@ZA			; AGKCommand1324
PUBLIC	?AGKCommand1325@@3P6AMI@ZA			; AGKCommand1325
PUBLIC	?AGKCommand1326@@3P6AMI@ZA			; AGKCommand1326
PUBLIC	?AGKCommand1327@@3P6AMI@ZA			; AGKCommand1327
PUBLIC	?AGKCommand1328@@3P6AMI@ZA			; AGKCommand1328
PUBLIC	?AGKCommand1329@@3P6AMI@ZA			; AGKCommand1329
PUBLIC	?AGKCommand1330@@3P6AMI@ZA			; AGKCommand1330
PUBLIC	?AGKCommand1331@@3P6AMI@ZA			; AGKCommand1331
PUBLIC	?AGKCommand1332@@3P6AMI@ZA			; AGKCommand1332
PUBLIC	?AGKCommand1333@@3P6AMI@ZA			; AGKCommand1333
PUBLIC	?AGKCommand1334@@3P6AMI@ZA			; AGKCommand1334
PUBLIC	?AGKCommand1335@@3P6AMI@ZA			; AGKCommand1335
PUBLIC	?AGKCommand1336@@3P6AMI@ZA			; AGKCommand1336
PUBLIC	?AGKCommand1337@@3P6AMI@ZA			; AGKCommand1337
PUBLIC	?AGKCommand1338@@3P6AMI@ZA			; AGKCommand1338
PUBLIC	?AGKCommand1339@@3P6AMI@ZA			; AGKCommand1339
PUBLIC	?AGKCommand1340@@3P6AMI@ZA			; AGKCommand1340
PUBLIC	?AGKCommand1341@@3P6AMI@ZA			; AGKCommand1341
PUBLIC	?AGKCommand1342@@3P6AMI@ZA			; AGKCommand1342
PUBLIC	?AGKCommand1343@@3P6AMI@ZA			; AGKCommand1343
PUBLIC	?AGKCommand1344@@3P6AMI@ZA			; AGKCommand1344
PUBLIC	?AGKCommand1345@@3P6AMI@ZA			; AGKCommand1345
PUBLIC	?AGKCommand1346@@3P6AMI@ZA			; AGKCommand1346
PUBLIC	?AGKCommand1347@@3P6AMI@ZA			; AGKCommand1347
PUBLIC	?AGKCommand1348@@3P6AMI@ZA			; AGKCommand1348
PUBLIC	?AGKCommand1349@@3P6AXIMMMM@ZA			; AGKCommand1349
PUBLIC	?AGKCommand1350@@3P6AXI@ZA			; AGKCommand1350
PUBLIC	?AGKCommand1351@@3P6AMIMM@ZA			; AGKCommand1351
PUBLIC	?AGKCommand1352@@3P6AXIII@ZA			; AGKCommand1352
PUBLIC	?AGKCommand1353@@3P6AXII@ZA			; AGKCommand1353
PUBLIC	?AGKCommand1354@@3P6AXII@ZA			; AGKCommand1354
PUBLIC	?AGKCommand1355@@3P6AXIHHHH@ZA			; AGKCommand1355
PUBLIC	?AGKCommand1356@@3P6AXIHHH@ZA			; AGKCommand1356
PUBLIC	?AGKCommand1357@@3P6AXIH@ZA			; AGKCommand1357
PUBLIC	?AGKCommand1358@@3P6AXIH@ZA			; AGKCommand1358
PUBLIC	?AGKCommand1359@@3P6AXIIMM@ZA			; AGKCommand1359
PUBLIC	?AGKCommand1360@@3P6AXIIMM@ZA			; AGKCommand1360
PUBLIC	?AGKCommand1361@@3P6AXIH@ZA			; AGKCommand1361
PUBLIC	?AGKCommand1362@@3P6AXIH@ZA			; AGKCommand1362
PUBLIC	?AGKCommand1363@@3P6AXIH@ZA			; AGKCommand1363
PUBLIC	?AGKCommand1364@@3P6AXIM@ZA			; AGKCommand1364
PUBLIC	?AGKCommand1365@@3P6AXIMM@ZA			; AGKCommand1365
PUBLIC	?AGKCommand1366@@3P6AXIH@ZA			; AGKCommand1366
PUBLIC	?AGKCommand1367@@3P6AXIH@ZA			; AGKCommand1367
PUBLIC	?AGKCommand1368@@3P6AXIH@ZA			; AGKCommand1368
PUBLIC	?AGKCommand1369@@3P6AXIH@ZA			; AGKCommand1369
PUBLIC	?AGKCommand1370@@3P6AHI@ZA			; AGKCommand1370
PUBLIC	?AGKCommand1371@@3P6AHI@ZA			; AGKCommand1371
PUBLIC	?AGKCommand1372@@3P6AMI@ZA			; AGKCommand1372
PUBLIC	?AGKCommand1373@@3P6AHI@ZA			; AGKCommand1373
PUBLIC	?AGKCommand1374@@3P6AHI@ZA			; AGKCommand1374
PUBLIC	?AGKCommand1375@@3P6AHI@ZA			; AGKCommand1375
PUBLIC	?AGKCommand1376@@3P6AHI@ZA			; AGKCommand1376
PUBLIC	?AGKCommand1377@@3P6APADI@ZA			; AGKCommand1377
PUBLIC	?AGKCommand1378@@3P6AXIPBDMMMM@ZA		; AGKCommand1378
PUBLIC	?AGKCommand1379@@3P6AXIPBDIMMMM@ZA		; AGKCommand1379
PUBLIC	?AGKCommand1380@@3P6AXIPBD@ZA			; AGKCommand1380
PUBLIC	?AGKCommand1381@@3P6AXI@ZA			; AGKCommand1381
PUBLIC	?AGKCommand1382@@3P6AMMMM@ZA			; AGKCommand1382
PUBLIC	?AGKCommand1383@@3P6AMMMM@ZA			; AGKCommand1383
PUBLIC	?AGKCommand1384@@3P6AMMM@ZA			; AGKCommand1384
PUBLIC	?AGKCommand1385@@3P6AMMM@ZA			; AGKCommand1385
PUBLIC	?AGKCommand1386@@3P6AMMM@ZA			; AGKCommand1386
PUBLIC	?AGKCommand1387@@3P6AXIH@ZA			; AGKCommand1387
PUBLIC	?AGKCommand1388@@3P6AHIMMMMMM@ZA		; AGKCommand1388
PUBLIC	?AGKCommand1389@@3P6AHIMMMMMMM@ZA		; AGKCommand1389
PUBLIC	?AGKCommand1390@@3P6AHIMMMMMMM@ZA		; AGKCommand1390
PUBLIC	?AGKCommand1391@@3P6AIXZA			; AGKCommand1391
PUBLIC	?AGKCommand1392@@3P6AII@ZA			; AGKCommand1392
PUBLIC	?AGKCommand1393@@3P6AMI@ZA			; AGKCommand1393
PUBLIC	?AGKCommand1394@@3P6AMI@ZA			; AGKCommand1394
PUBLIC	?AGKCommand1395@@3P6AMI@ZA			; AGKCommand1395
PUBLIC	?AGKCommand1396@@3P6AMI@ZA			; AGKCommand1396
PUBLIC	?AGKCommand1397@@3P6AMI@ZA			; AGKCommand1397
PUBLIC	?AGKCommand1398@@3P6AMI@ZA			; AGKCommand1398
PUBLIC	?AGKCommand1399@@3P6AMI@ZA			; AGKCommand1399
PUBLIC	?AGKCommand1400@@3P6AMI@ZA			; AGKCommand1400
PUBLIC	?AGKCommand1401@@3P6AMI@ZA			; AGKCommand1401
PUBLIC	?AGKCommand1402@@3P6AMI@ZA			; AGKCommand1402
PUBLIC	?AGKCommand1403@@3P6AMI@ZA			; AGKCommand1403
PUBLIC	?AGKCommand1404@@3P6AMI@ZA			; AGKCommand1404
PUBLIC	?AGKCommand1405@@3P6AMI@ZA			; AGKCommand1405
PUBLIC	?AGKCommand1406@@3P6AXH@ZA			; AGKCommand1406
PUBLIC	?AGKCommand1407@@3P6AXHHH@ZA			; AGKCommand1407
PUBLIC	?AGKCommand1408@@3P6AXHHH@ZA			; AGKCommand1408
PUBLIC	?AGKCommand1409@@3P6AXMM@ZA			; AGKCommand1409
PUBLIC	?AGKCommand1410@@3P6AHXZA			; AGKCommand1410
PUBLIC	?AGKCommand1411@@3P6AXH@ZA			; AGKCommand1411
PUBLIC	?AGKCommand1412@@3P6AXHHH@ZA			; AGKCommand1412
PUBLIC	?AGKCommand1413@@3P6AXHHH@ZA			; AGKCommand1413
PUBLIC	?AGKCommand1414@@3P6AXHHH@ZA			; AGKCommand1414
PUBLIC	?AGKCommand1415@@3P6AXMM@ZA			; AGKCommand1415
PUBLIC	?AGKCommand1416@@3P6AXH@ZA			; AGKCommand1416
PUBLIC	?AGKCommand1417@@3P6AXMM@ZA			; AGKCommand1417
PUBLIC	?AGKCommand1418@@3P6AIPBD0@ZA			; AGKCommand1418
PUBLIC	?AGKCommand1419@@3P6AXIPBD0@ZA			; AGKCommand1419
PUBLIC	?AGKCommand1420@@3P6AIPBD@ZA			; AGKCommand1420
PUBLIC	?AGKCommand1421@@3P6AXIPBD@ZA			; AGKCommand1421
PUBLIC	?AGKCommand1422@@3P6AIPBD@ZA			; AGKCommand1422
PUBLIC	?AGKCommand1423@@3P6AXIPBD@ZA			; AGKCommand1423
PUBLIC	?AGKCommand1424@@3P6AXIPBDMMMM@ZA		; AGKCommand1424
PUBLIC	?AGKCommand1425@@3P6AXIPBDIMMMM@ZA		; AGKCommand1425
PUBLIC	?AGKCommand1426@@3P6AXIMMM@ZA			; AGKCommand1426
PUBLIC	?AGKCommand1427@@3P6AXIMMMM@ZA			; AGKCommand1427
PUBLIC	?AGKCommand1428@@3P6AXIMMM@ZA			; AGKCommand1428
PUBLIC	?AGKCommand1429@@3P6AXIM@ZA			; AGKCommand1429
PUBLIC	?AGKCommand1430@@3P6AXIM@ZA			; AGKCommand1430
PUBLIC	?AGKCommand1431@@3P6AXIM@ZA			; AGKCommand1431
PUBLIC	?AGKCommand1432@@3P6AXIM@ZA			; AGKCommand1432
PUBLIC	?AGKCommand1433@@3P6AXIM@ZA			; AGKCommand1433
PUBLIC	?AGKCommand1434@@3P6AXIM@ZA			; AGKCommand1434
PUBLIC	?AGKCommand1435@@3P6AXIM@ZA			; AGKCommand1435
PUBLIC	?AGKCommand1436@@3P6AXIM@ZA			; AGKCommand1436
PUBLIC	?AGKCommand1437@@3P6AXIM@ZA			; AGKCommand1437
PUBLIC	?AGKCommand1438@@3P6AMI@ZA			; AGKCommand1438
PUBLIC	?AGKCommand1439@@3P6AMI@ZA			; AGKCommand1439
PUBLIC	?AGKCommand1440@@3P6AMI@ZA			; AGKCommand1440
PUBLIC	?AGKCommand1441@@3P6AMI@ZA			; AGKCommand1441
PUBLIC	?AGKCommand1442@@3P6AMI@ZA			; AGKCommand1442
PUBLIC	?AGKCommand1443@@3P6AMI@ZA			; AGKCommand1443
PUBLIC	?AGKCommand1444@@3P6AMI@ZA			; AGKCommand1444
PUBLIC	?AGKCommand1445@@3P6AMI@ZA			; AGKCommand1445
PUBLIC	?AGKCommand1446@@3P6AMI@ZA			; AGKCommand1446
PUBLIC	?AGKCommand1447@@3P6AMI@ZA			; AGKCommand1447
PUBLIC	?AGKCommand1448@@3P6AXIMMMM@ZA			; AGKCommand1448
PUBLIC	?AGKCommand1449@@3P6AXIMM@ZA			; AGKCommand1449
PUBLIC	?AGKCommand1450@@3P6AXIM@ZA			; AGKCommand1450
PUBLIC	?AGKCommand1451@@3P6AXIM@ZA			; AGKCommand1451
PUBLIC	?AGKCommand1452@@3P6AXIM@ZA			; AGKCommand1452
PUBLIC	?AGKCommand1453@@3P6AXIMMMM@ZA			; AGKCommand1453
PUBLIC	?AGKCommand1454@@3P6AXIH@ZA			; AGKCommand1454
PUBLIC	?AGKCommand1455@@3P6AMI@ZA			; AGKCommand1455
PUBLIC	?AGKCommand1456@@3P6AXIMMMMHHH@ZA		; AGKCommand1456
PUBLIC	?AGKCommand1457@@3P6AHI@ZA			; AGKCommand1457
PUBLIC	?AGKCommand1458@@3P6AXI@ZA			; AGKCommand1458
PUBLIC	?AGKCommand1459@@3P6AXXZA			; AGKCommand1459
PUBLIC	?AGKCommand1460@@3P6AXIMMM@ZA			; AGKCommand1460
PUBLIC	?AGKCommand1461@@3P6AXIHHH@ZA			; AGKCommand1461
PUBLIC	?AGKCommand1462@@3P6AXIM@ZA			; AGKCommand1462
PUBLIC	?AGKCommand1463@@3P6AXIH@ZA			; AGKCommand1463
PUBLIC	?AGKCommand1464@@3P6AXMMM@ZA			; AGKCommand1464
PUBLIC	?AGKCommand1465@@3P6AXHHH@ZA			; AGKCommand1465
PUBLIC	?AGKCommand1466@@3P6AXH@ZA			; AGKCommand1466
PUBLIC	?AGKCommand1467@@3P6AXHHH@ZA			; AGKCommand1467
PUBLIC	?AGKCommand1468@@3P6AXXZA			; AGKCommand1468
PUBLIC	?AGKCommand1469@@3P6AXM@ZA			; AGKCommand1469
PUBLIC	?AGKCommand1470@@3P6AXMMM@ZA			; AGKCommand1470
PUBLIC	?AGKCommand1471@@3P6AXI@ZA			; AGKCommand1471
PUBLIC	?AGKCommand1472@@3P6AXXZA			; AGKCommand1472
PUBLIC	?AGKCommand1473@@3P6AXXZA			; AGKCommand1473
PUBLIC	?AGKCommand1474@@3P6AXXZA			; AGKCommand1474
PUBLIC	?AGKCommand1475@@3P6AXXZA			; AGKCommand1475
PUBLIC	?AGKCommand1476@@3P6AHXZA			; AGKCommand1476
PUBLIC	?AGKCommand1477@@3P6AHXZA			; AGKCommand1477
PUBLIC	?AGKCommand1478@@3P6AHXZA			; AGKCommand1478
PUBLIC	?AGKCommand1479@@3P6AXI@ZA			; AGKCommand1479
PUBLIC	?AGKCommand1480@@3P6AXIMMM@ZA			; AGKCommand1480
PUBLIC	?AGKCommand1481@@3P6AXII@ZA			; AGKCommand1481
PUBLIC	?AGKCommand1482@@3P6AXI@ZA			; AGKCommand1482
PUBLIC	?AGKCommand1483@@3P6AXIM@ZA			; AGKCommand1483
PUBLIC	?AGKCommand1484@@3P6AXIH@ZA			; AGKCommand1484
PUBLIC	?AGKCommand1485@@3P6AXIHMM@ZA			; AGKCommand1485
PUBLIC	?AGKCommand1486@@3P6AXIH@ZA			; AGKCommand1486
PUBLIC	?AGKCommand1487@@3P6AXIHMM@ZA			; AGKCommand1487
PUBLIC	?AGKCommand1488@@3P6AXIH@ZA			; AGKCommand1488
PUBLIC	?AGKCommand1489@@3P6AXIHMMM@ZA			; AGKCommand1489
PUBLIC	?AGKCommand1490@@3P6AXIHI@ZA			; AGKCommand1490
PUBLIC	?AGKCommand1491@@3P6AXI@ZA			; AGKCommand1491
PUBLIC	?AGKCommand1492@@3P6AXI@ZA			; AGKCommand1492
PUBLIC	?AGKCommand1493@@3P6AXI@ZA			; AGKCommand1493
PUBLIC	?AGKCommand1494@@3P6AXI@ZA			; AGKCommand1494
PUBLIC	?AGKCommand1495@@3P6AXI@ZA			; AGKCommand1495
PUBLIC	?AGKCommand1496@@3P6AXI@ZA			; AGKCommand1496
PUBLIC	?AGKCommand1497@@3P6AXI@ZA			; AGKCommand1497
PUBLIC	?AGKCommand1498@@3P6AHMMMM@ZA			; AGKCommand1498
PUBLIC	?AGKCommand1499@@3P6AXIMMM@ZA			; AGKCommand1499
PUBLIC	?AGKCommand1500@@3P6AXIMMM@ZA			; AGKCommand1500
PUBLIC	?AGKCommand1501@@3P6AXI@ZA			; AGKCommand1501
PUBLIC	?AGKCommand1502@@3P6AXIHH@ZA			; AGKCommand1502
PUBLIC	?AGKCommand1503@@3P6AHI@ZA			; AGKCommand1503
PUBLIC	?AGKCommand1504@@3P6AHI@ZA			; AGKCommand1504
PUBLIC	?AGKCommand1505@@3P6AXIM@ZA			; AGKCommand1505
PUBLIC	?AGKCommand1506@@3P6AMI@ZA			; AGKCommand1506
PUBLIC	?AGKCommand1507@@3P6AXIH@ZA			; AGKCommand1507
PUBLIC	?AGKCommand1508@@3P6AXIM@ZA			; AGKCommand1508
PUBLIC	?AGKCommand1509@@3P6AMI@ZA			; AGKCommand1509
PUBLIC	?AGKCommand1510@@3P6AXIM@ZA			; AGKCommand1510
PUBLIC	?AGKCommand1511@@3P6AMI@ZA			; AGKCommand1511
PUBLIC	?AGKCommand1512@@3P6AXIH@ZA			; AGKCommand1512
PUBLIC	?AGKCommand1513@@3P6AXIM@ZA			; AGKCommand1513
PUBLIC	?AGKCommand1514@@3P6AXIMMMM@ZA			; AGKCommand1514
PUBLIC	?AGKCommand1515@@3P6AXIIM@ZA			; AGKCommand1515
PUBLIC	?AGKCommand1516@@3P6AMI@ZA			; AGKCommand1516
PUBLIC	?AGKCommand1517@@3P6AMI@ZA			; AGKCommand1517
PUBLIC	?AGKCommand1518@@3P6AMI@ZA			; AGKCommand1518
PUBLIC	?AGKCommand1519@@3P6AXIMMMM@ZA			; AGKCommand1519
PUBLIC	?AGKCommand1520@@3P6AXIIM@ZA			; AGKCommand1520
PUBLIC	?AGKCommand1521@@3P6AMI@ZA			; AGKCommand1521
PUBLIC	?AGKCommand1522@@3P6AMI@ZA			; AGKCommand1522
PUBLIC	?AGKCommand1523@@3P6AMI@ZA			; AGKCommand1523
PUBLIC	?AGKCommand1524@@3P6AXIMM@ZA			; AGKCommand1524
PUBLIC	?AGKCommand1525@@3P6AMI@ZA			; AGKCommand1525
PUBLIC	?AGKCommand1526@@3P6AMI@ZA			; AGKCommand1526
PUBLIC	?AGKCommand1527@@3P6AXIMM@ZA			; AGKCommand1527
PUBLIC	?AGKCommand1528@@3P6AMI@ZA			; AGKCommand1528
PUBLIC	?AGKCommand1529@@3P6AMI@ZA			; AGKCommand1529
PUBLIC	?AGKCommand1530@@3P6AXIM@ZA			; AGKCommand1530
PUBLIC	?AGKCommand1531@@3P6AXIM@ZA			; AGKCommand1531
PUBLIC	?AGKCommand1532@@3P6AMI@ZA			; AGKCommand1532
PUBLIC	?AGKCommand1533@@3P6AHI@ZA			; AGKCommand1533
PUBLIC	?AGKCommand1534@@3P6AMXZA			; AGKCommand1534
PUBLIC	?AGKCommand1535@@3P6AMXZA			; AGKCommand1535
PUBLIC	?AGKCommand1536@@3P6AMXZA			; AGKCommand1536
PUBLIC	?AGKCommand1537@@3P6AHH@ZA			; AGKCommand1537
PUBLIC	?AGKCommand1538@@3P6AHXZA			; AGKCommand1538
PUBLIC	?AGKCommand1539@@3P6AHXZA			; AGKCommand1539
PUBLIC	?AGKCommand1540@@3P6AHIIH@ZA			; AGKCommand1540
PUBLIC	?AGKCommand1541@@3P6AHIH@ZA			; AGKCommand1541
PUBLIC	?AGKCommand1542@@3P6AXIH@ZA			; AGKCommand1542
PUBLIC	?AGKCommand1543@@3P6AXI@ZA			; AGKCommand1543
PUBLIC	?AGKCommand1544@@3P6AHIIHHH@ZA			; AGKCommand1544
PUBLIC	?AGKCommand1545@@3P6AHIIHHH@ZA			; AGKCommand1545
PUBLIC	?AGKCommand1546@@3P6AHIIHH@ZA			; AGKCommand1546
PUBLIC	?AGKCommand1547@@3P6AHIIH@ZA			; AGKCommand1547
PUBLIC	?AGKCommand1548@@3P6AHIIHM@ZA			; AGKCommand1548
PUBLIC	?AGKCommand1549@@3P6AXIMM@ZA			; AGKCommand1549
PUBLIC	?AGKCommand1550@@3P6AXIMM@ZA			; AGKCommand1550
PUBLIC	?AGKCommand1551@@3P6AXIMMM@ZA			; AGKCommand1551
PUBLIC	?AGKCommand1552@@3P6AXIMM@ZA			; AGKCommand1552
PUBLIC	?AGKCommand1553@@3P6AXIM@ZA			; AGKCommand1553
PUBLIC	?AGKCommand1554@@3P6AXIH@ZA			; AGKCommand1554
PUBLIC	?AGKCommand1555@@3P6AHI@ZA			; AGKCommand1555
PUBLIC	?AGKCommand1556@@3P6AHI@ZA			; AGKCommand1556
PUBLIC	?AGKCommand1557@@3P6AHI@ZA			; AGKCommand1557
PUBLIC	?AGKCommand1558@@3P6AXI@ZA			; AGKCommand1558
PUBLIC	?AGKCommand1559@@3P6AXIH@ZA			; AGKCommand1559
PUBLIC	?AGKCommand1560@@3P6AXIM@ZA			; AGKCommand1560
PUBLIC	?AGKCommand1561@@3P6AXIM@ZA			; AGKCommand1561
PUBLIC	?AGKCommand1562@@3P6AXIH@ZA			; AGKCommand1562
PUBLIC	?AGKCommand1563@@3P6AXIM@ZA			; AGKCommand1563
PUBLIC	?AGKCommand1564@@3P6AXIH@ZA			; AGKCommand1564
PUBLIC	?AGKCommand1565@@3P6AXIH@ZA			; AGKCommand1565
PUBLIC	?AGKCommand1566@@3P6AXIM@ZA			; AGKCommand1566
PUBLIC	?AGKCommand1567@@3P6AXIM@ZA			; AGKCommand1567
PUBLIC	?AGKCommand1568@@3P6AXHHHH@ZA			; AGKCommand1568
PUBLIC	?AGKCommand1569@@3P6AXHHM@ZA			; AGKCommand1569
PUBLIC	?AGKCommand1570@@3P6AXHHHHH@ZA			; AGKCommand1570
PUBLIC	?AGKCommand1571@@3P6AXHHHHH@ZA			; AGKCommand1571
PUBLIC	?AGKCommand1572@@3P6AXHHHHH@ZA			; AGKCommand1572
PUBLIC	?AGKCommand1573@@3P6AHIPBD@ZA			; AGKCommand1573
PUBLIC	?AGKCommand1574@@3P6AHIPBD@ZA			; AGKCommand1574
PUBLIC	?AGKCommand1575@@3P6AHXZA			; AGKCommand1575
PUBLIC	?AGKCommand1576@@3P6AHMMM@ZA			; AGKCommand1576
PUBLIC	?AGKCommand1577@@3P6AXIMMM@ZA			; AGKCommand1577
PUBLIC	?AGKCommand1578@@3P6AXI@ZA			; AGKCommand1578
PUBLIC	?AGKCommand1579@@3P6AMI@ZA			; AGKCommand1579
PUBLIC	?AGKCommand1580@@3P6AMI@ZA			; AGKCommand1580
PUBLIC	?AGKCommand1581@@3P6AMI@ZA			; AGKCommand1581
PUBLIC	?AGKCommand1582@@3P6AMII@ZA			; AGKCommand1582
PUBLIC	?AGKCommand1583@@3P6AMI@ZA			; AGKCommand1583
PUBLIC	?AGKCommand1584@@3P6AMII@ZA			; AGKCommand1584
PUBLIC	?AGKCommand1585@@3P6AXIII@ZA			; AGKCommand1585
PUBLIC	?AGKCommand1586@@3P6AXIM@ZA			; AGKCommand1586
PUBLIC	?AGKCommand1587@@3P6AXII@ZA			; AGKCommand1587
PUBLIC	?AGKCommand1588@@3P6AHXZA			; AGKCommand1588
PUBLIC	?AGKCommand1589@@3P6AXI@ZA			; AGKCommand1589
PUBLIC	?AGKCommand1590@@3P6AHI@ZA			; AGKCommand1590
PUBLIC	?AGKCommand1591@@3P6AXIHHH@ZA			; AGKCommand1591
PUBLIC	?AGKCommand1592@@3P6AHIIHHH@ZA			; AGKCommand1592
PUBLIC	?AGKCommand1593@@3P6AHIM@ZA			; AGKCommand1593
PUBLIC	?AGKCommand1594@@3P6AHI@ZA			; AGKCommand1594
PUBLIC	?AGKCommand1595@@3P6AMI@ZA			; AGKCommand1595
PUBLIC	?AGKCommand1596@@3P6AHIMH@ZA			; AGKCommand1596
PUBLIC	?AGKCommand1597@@3P6AHIH@ZA			; AGKCommand1597
PUBLIC	?AGKCommand1598@@3P6AXIH@ZA			; AGKCommand1598
PUBLIC	?AGKCommand1599@@3P6AHI@ZA			; AGKCommand1599
PUBLIC	?AGKCommand1600@@3P6AXIHHM@ZA			; AGKCommand1600
PUBLIC	?AGKCommand1601@@3P6AHIIHHM@ZA			; AGKCommand1601
PUBLIC	?AGKCommand1602@@3P6AXIM@ZA			; AGKCommand1602
PUBLIC	?AGKCommand1603@@3P6AHIIMHH@ZA			; AGKCommand1603
PUBLIC	?AGKCommand1604@@3P6AXII@ZA			; AGKCommand1604
PUBLIC	?AGKCommand1605@@3P6AXIIIHMM@ZA			; AGKCommand1605
PUBLIC	?AGKCommand1606@@3P6AXIIIHH@ZA			; AGKCommand1606
PUBLIC	?AGKCommand1607@@3P6AXXZA			; AGKCommand1607
PUBLIC	?AGKCommand1608@@3P6AXI@ZA			; AGKCommand1608
PUBLIC	?AGKCommand1609@@3P6AHI@ZA			; AGKCommand1609
PUBLIC	?AGKCommand1610@@3P6AHI@ZA			; AGKCommand1610
PUBLIC	?AGKCommand1611@@3P6AHI@ZA			; AGKCommand1611
PUBLIC	?AGKCommand1612@@3P6AXIH@ZA			; AGKCommand1612
PUBLIC	?AGKCommand1613@@3P6AXIH@ZA			; AGKCommand1613
PUBLIC	?AGKCommand1614@@3P6AXMM@ZA			; AGKCommand1614
PUBLIC	?AGKCommand1615@@3P6AXMM@ZA			; AGKCommand1615
PUBLIC	?AGKCommand1616@@3P6AXM@ZA			; AGKCommand1616
PUBLIC	?AGKCommand1617@@3P6AXIH@ZA			; AGKCommand1617
PUBLIC	?AGKCommand1618@@3P6AXIHHHM@ZA			; AGKCommand1618
PUBLIC	?AGKCommand1619@@3P6AXI@ZA			; AGKCommand1619
PUBLIC	?AGKCommand1620@@3P6AHI@ZA			; AGKCommand1620
PUBLIC	?AGKCommand1621@@3P6AXIM@ZA			; AGKCommand1621
PUBLIC	?AGKCommand1622@@3P6AXIM@ZA			; AGKCommand1622
PUBLIC	?AGKCommand1623@@3P6AXIM@ZA			; AGKCommand1623
PUBLIC	?AGKCommand1624@@3P6AXIM@ZA			; AGKCommand1624
PUBLIC	?AGKCommand1625@@3P6AXIM@ZA			; AGKCommand1625
PUBLIC	?AGKCommand1626@@3P6AMI@ZA			; AGKCommand1626
PUBLIC	?AGKCommand1627@@3P6AMI@ZA			; AGKCommand1627
PUBLIC	?AGKCommand1628@@3P6AXIHM@ZA			; AGKCommand1628
PUBLIC	?AGKCommand1629@@3P6AXIM@ZA			; AGKCommand1629
PUBLIC	?AGKCommand1630@@3P6AXI@ZA			; AGKCommand1630
PUBLIC	?AGKCommand1631@@3P6AXI@ZA			; AGKCommand1631
PUBLIC	?AGKCommand1632@@3P6AXI@ZA			; AGKCommand1632
PUBLIC	?AGKCommand1633@@3P6AXIH@ZA			; AGKCommand1633
PUBLIC	?AGKCommand1634@@3P6AXIMMM@ZA			; AGKCommand1634
PUBLIC	?AGKCommand1635@@3P6AXHH@ZA			; AGKCommand1635
PUBLIC	?AGKCommand1636@@3P6AXHHH@ZA			; AGKCommand1636
PUBLIC	?AGKCommand1637@@3P6AXHHHH@ZA			; AGKCommand1637
PUBLIC	?AGKCommand1638@@3P6AXH@ZA			; AGKCommand1638
PUBLIC	?AGKCommand1639@@3P6AXXZA			; AGKCommand1639
PUBLIC	?AGKCommand1640@@3P6AXXZA			; AGKCommand1640
PUBLIC	?AGKCommand1641@@3P6AXXZA			; AGKCommand1641
PUBLIC	?AGKCommand1642@@3P6AXH@ZA			; AGKCommand1642
PUBLIC	?AGKCommand1643@@3P6AXHH@ZA			; AGKCommand1643
PUBLIC	?AGKCommand1644@@3P6APADXZA			; AGKCommand1644
PUBLIC	?AGKCommand1645@@3P6APADXZA			; AGKCommand1645
PUBLIC	?AGKCommand1646@@3P6APADXZA			; AGKCommand1646
PUBLIC	?AGKCommand1647@@3P6APADXZA			; AGKCommand1647
PUBLIC	?AGKCommand1648@@3P6APADXZA			; AGKCommand1648
PUBLIC	?AGKCommand1649@@3P6AXH@ZA			; AGKCommand1649
PUBLIC	?AGKCommand1650@@3P6AXPBD@ZA			; AGKCommand1650
PUBLIC	?AGKCommand1651@@3P6AXH@ZA			; AGKCommand1651
PUBLIC	?AGKCommand1652@@3P6AHXZA			; AGKCommand1652
PUBLIC	?AGKCommand1653@@3P6AXXZA			; AGKCommand1653
PUBLIC	?AGKCommand1654@@3P6AMXZA			; AGKCommand1654
PUBLIC	?AGKCommand1655@@3P6AXPBD@ZA			; AGKCommand1655
PUBLIC	?AGKCommand1656@@3P6AXI@ZA			; AGKCommand1656
PUBLIC	?AGKCommand1657@@3P6AXH@ZA			; AGKCommand1657
PUBLIC	?AGKCommand1658@@3P6AHXZA			; AGKCommand1658
PUBLIC	?AGKCommand1659@@3P6AHXZA			; AGKCommand1659
PUBLIC	?AGKCommand1660@@3P6AHXZA			; AGKCommand1660
PUBLIC	?AGKCommand1661@@3P6APADXZA			; AGKCommand1661
PUBLIC	?AGKCommand1662@@3P6AHXZA			; AGKCommand1662
PUBLIC	?AGKCommand1663@@3P6AMM@ZA			; AGKCommand1663
PUBLIC	?AGKCommand1664@@3P6AMM@ZA			; AGKCommand1664
PUBLIC	?AGKCommand1665@@3P6AMM@ZA			; AGKCommand1665
PUBLIC	?AGKCommand1666@@3P6AMM@ZA			; AGKCommand1666
PUBLIC	?AGKCommand1667@@3P6AMM@ZA			; AGKCommand1667
PUBLIC	?AGKCommand1668@@3P6AMM@ZA			; AGKCommand1668
PUBLIC	?AGKCommand1669@@3P6AMM@ZA			; AGKCommand1669
PUBLIC	?AGKCommand1670@@3P6AMM@ZA			; AGKCommand1670
PUBLIC	?AGKCommand1671@@3P6AMM@ZA			; AGKCommand1671
PUBLIC	?AGKCommand1672@@3P6AMMM@ZA			; AGKCommand1672
PUBLIC	?AGKCommand1673@@3P6AMM@ZA			; AGKCommand1673
PUBLIC	?AGKCommand1674@@3P6AMM@ZA			; AGKCommand1674
PUBLIC	?AGKCommand1675@@3P6AMM@ZA			; AGKCommand1675
PUBLIC	?AGKCommand1676@@3P6AMMM@ZA			; AGKCommand1676
PUBLIC	?AGKCommand1677@@3P6AHM@ZA			; AGKCommand1677
PUBLIC	?AGKCommand1678@@3P6AHM@ZA			; AGKCommand1678
PUBLIC	?AGKCommand1679@@3P6AHM@ZA			; AGKCommand1679
PUBLIC	?AGKCommand1680@@3P6AHM@ZA			; AGKCommand1680
PUBLIC	?AGKCommand1681@@3P6AMM@ZA			; AGKCommand1681
PUBLIC	?AGKCommand1682@@3P6AMM@ZA			; AGKCommand1682
PUBLIC	?AGKCommand1683@@3P6AHHH@ZA			; AGKCommand1683
PUBLIC	?AGKCommand1684@@3P6AMMM@ZA			; AGKCommand1684
PUBLIC	?AGKCommand1685@@3P6AMMM@ZA			; AGKCommand1685
PUBLIC	?AGKCommand1686@@3P6AMM@ZA			; AGKCommand1686
PUBLIC	?AGKCommand1687@@3P6AHXZA			; AGKCommand1687
PUBLIC	?AGKCommand1688@@3P6AHII@ZA			; AGKCommand1688
PUBLIC	?AGKCommand1689@@3P6AHI@ZA			; AGKCommand1689
PUBLIC	?AGKCommand1690@@3P6AXM@ZA			; AGKCommand1690
PUBLIC	?AGKCommand1691@@3P6AHPBD@ZA			; AGKCommand1691
PUBLIC	?AGKCommand1692@@3P6AXXZA			; AGKCommand1692
PUBLIC	?AGKCommand1693@@3P6AXMMMM@ZA			; AGKCommand1693
PUBLIC	?AGKCommand1694@@3P6AXI@ZA			; AGKCommand1694
PUBLIC	?AGKCommand1695@@3P6AXXZA			; AGKCommand1695
PUBLIC	?AGKCommand1696@@3P6AXXZA			; AGKCommand1696
PUBLIC	?AGKCommand1697@@3P6AXXZA			; AGKCommand1697
PUBLIC	?AGKCommand1698@@3P6AHXZA			; AGKCommand1698
PUBLIC	?AGKCommand1699@@3P6AMXZA			; AGKCommand1699
PUBLIC	?AGKCommand1700@@3P6AMXZA			; AGKCommand1700
PUBLIC	?AGKCommand1701@@3P6AXM@ZA			; AGKCommand1701
PUBLIC	?AGKCommand1702@@3P6AMXZA			; AGKCommand1702
PUBLIC	?AGKCommand1703@@3P6AMXZA			; AGKCommand1703
PUBLIC	?AGKCommand1704@@3P6AXM@ZA			; AGKCommand1704
PUBLIC	?AGKCommand1705@@3P6AXPBD@ZA			; AGKCommand1705
PUBLIC	?AGKCommand1706@@3P6APADXZA			; AGKCommand1706
PUBLIC	?AGKCommand1707@@3P6APADXZA			; AGKCommand1707
PUBLIC	?AGKCommand1708@@3P6APADXZA			; AGKCommand1708
PUBLIC	?AGKCommand1709@@3P6AHPBD@ZA			; AGKCommand1709
PUBLIC	?AGKCommand1710@@3P6AHPBD@ZA			; AGKCommand1710
PUBLIC	?AGKCommand1711@@3P6AXPBD@ZA			; AGKCommand1711
PUBLIC	?AGKCommand1712@@3P6AHXZA			; AGKCommand1712
PUBLIC	?AGKCommand1713@@3P6AHXZA			; AGKCommand1713
PUBLIC	?AGKCommand1714@@3P6AHXZA			; AGKCommand1714
PUBLIC	?AGKCommand1715@@3P6AHXZA			; AGKCommand1715
PUBLIC	?AGKCommand1716@@3P6AHXZA			; AGKCommand1716
PUBLIC	?AGKCommand1717@@3P6AXH@ZA			; AGKCommand1717
PUBLIC	?AGKCommand1718@@3P6AXMM@ZA			; AGKCommand1718
PUBLIC	?AGKCommand1719@@3P6AHXZA			; AGKCommand1719
PUBLIC	?AGKCommand1720@@3P6AHXZA			; AGKCommand1720
PUBLIC	?AGKCommand1721@@3P6APADXZA			; AGKCommand1721
PUBLIC	?AGKCommand1722@@3P6APADXZA			; AGKCommand1722
PUBLIC	?AGKCommand1723@@3P6AXPBD@ZA			; AGKCommand1723
PUBLIC	?AGKCommand1724@@3P6AIPBD0@ZA			; AGKCommand1724
PUBLIC	?AGKCommand1725@@3P6AII@ZA			; AGKCommand1725
PUBLIC	?AGKCommand1726@@3P6AXI@ZA			; AGKCommand1726
PUBLIC	?AGKCommand1727@@3P6AXPBD@ZA			; AGKCommand1727
PUBLIC	?AGKCommand1728@@3P6AXPBD@ZA			; AGKCommand1728
PUBLIC	?AGKCommand1729@@3P6AXPBD@ZA			; AGKCommand1729
PUBLIC	?AGKCommand1730@@3P6AXPBD0@ZA			; AGKCommand1730
PUBLIC	?AGKCommand1731@@3P6AXXZA			; AGKCommand1731
PUBLIC	?AGKCommand1732@@3P6AHXZA			; AGKCommand1732
PUBLIC	?AGKCommand1733@@3P6AXPBD0@ZA			; AGKCommand1733
PUBLIC	?AGKCommand1734@@3P6AHXZA			; AGKCommand1734
PUBLIC	?AGKCommand1735@@3P6APADXZA			; AGKCommand1735
PUBLIC	?AGKCommand1736@@3P6AHXZA			; AGKCommand1736
PUBLIC	?AGKCommand1737@@3P6AXH@ZA			; AGKCommand1737
PUBLIC	?AGKCommand1738@@3P6AXPBD@ZA			; AGKCommand1738
PUBLIC	?AGKCommand1739@@3P6AHXZA			; AGKCommand1739
PUBLIC	?AGKCommand1740@@3P6AXXZA			; AGKCommand1740
PUBLIC	?AGKCommand1741@@3P6AXXZA			; AGKCommand1741
PUBLIC	?AGKCommand1742@@3P6AMXZA			; AGKCommand1742
PUBLIC	?AGKCommand1743@@3P6AMXZA			; AGKCommand1743
PUBLIC	?AGKCommand1744@@3P6AMXZA			; AGKCommand1744
PUBLIC	?AGKCommand1745@@3P6AHXZA			; AGKCommand1745
PUBLIC	?AGKCommand1746@@3P6AXXZA			; AGKCommand1746
PUBLIC	?AGKCommand1747@@3P6AXXZA			; AGKCommand1747
PUBLIC	?AGKCommand1748@@3P6AHXZA			; AGKCommand1748
PUBLIC	?AGKCommand1749@@3P6APADXZA			; AGKCommand1749
PUBLIC	?AGKCommand1750@@3P6APADXZA			; AGKCommand1750
PUBLIC	?AGKCommand1751@@3P6AXHPBD@ZA			; AGKCommand1751
PUBLIC	?AGKCommand1752@@3P6AXPBD@ZA			; AGKCommand1752
PUBLIC	?AGKCommand1753@@3P6AXPBDH@ZA			; AGKCommand1753
PUBLIC	?AGKCommand1754@@3P6AXXZA			; AGKCommand1754
PUBLIC	?AGKCommand1755@@3P6AXXZA			; AGKCommand1755
PUBLIC	?AGKCommand1756@@3P6AXPBD@ZA			; AGKCommand1756
PUBLIC	?AGKCommand1757@@3P6AXPBD0@ZA			; AGKCommand1757
PUBLIC	?AGKCommand1758@@3P6APADPBD0@ZA			; AGKCommand1758
PUBLIC	?AGKCommand1759@@3P6AXPBD@ZA			; AGKCommand1759
PUBLIC	?AGKCommand1760@@3P6AXXZA			; AGKCommand1760
PUBLIC	?AGKCommand1761@@3P6AXPBD@ZA			; AGKCommand1761
PUBLIC	?AGKCommand1762@@3P6AIXZA			; AGKCommand1762
PUBLIC	?AGKCommand1763@@3P6AXH@ZA			; AGKCommand1763
PUBLIC	?AGKCommand1764@@3P6AXXZA			; AGKCommand1764
PUBLIC	?AGKCommand1765@@3P6AXI@ZA			; AGKCommand1765
PUBLIC	?AGKCommand1766@@3P6AXII@ZA			; AGKCommand1766
PUBLIC	?AGKCommand1767@@3P6AXHH@ZA			; AGKCommand1767
PUBLIC	?AGKCommand1768@@3P6AXHH@ZA			; AGKCommand1768
PUBLIC	?AGKCommand1769@@3P6AHH@ZA			; AGKCommand1769
PUBLIC	?AGKCommand1770@@3P6AHH@ZA			; AGKCommand1770
PUBLIC	?AGKCommand1771@@3P6AHXZA			; AGKCommand1771
PUBLIC	?AGKCommand1772@@3P6AXH@ZA			; AGKCommand1772
PUBLIC	?AGKCommand1773@@3P6AHXZA			; AGKCommand1773
PUBLIC	?AGKCommand1774@@3P6AXHH@ZA			; AGKCommand1774
PUBLIC	?AGKCommand1775@@3P6AXM@ZA			; AGKCommand1775
PUBLIC	?AGKCommand1776@@3P6AXM@ZA			; AGKCommand1776
PUBLIC	?AGKCommand1777@@3P6AXM@ZA			; AGKCommand1777
PUBLIC	?AGKCommand1778@@3P6AXH@ZA			; AGKCommand1778
PUBLIC	?AGKCommand1779@@3P6AIXZA			; AGKCommand1779
PUBLIC	?AGKCommand1780@@3P6AIPBD0@ZA			; AGKCommand1780
PUBLIC	?AGKCommand1781@@3P6AXIPBD0@ZA			; AGKCommand1781
PUBLIC	?AGKCommand1782@@3P6AXIMMM@ZA			; AGKCommand1782
PUBLIC	?AGKCommand1783@@3P6AIMMM@ZA			; AGKCommand1783
PUBLIC	?AGKCommand1784@@3P6AHI@ZA			; AGKCommand1784
PUBLIC	?AGKCommand1785@@3P6AXI@ZA			; AGKCommand1785
PUBLIC	?AGKCommand1786@@3P6AXIMMM@ZA			; AGKCommand1786
PUBLIC	?AGKCommand1787@@3P6AXIM@ZA			; AGKCommand1787
PUBLIC	?AGKCommand1788@@3P6AXIMMMMMM@ZA		; AGKCommand1788
PUBLIC	?AGKCommand1789@@3P6AXIMMMM@ZA			; AGKCommand1789
PUBLIC	?AGKCommand1790@@3P6AXIMM@ZA			; AGKCommand1790
PUBLIC	?AGKCommand1791@@3P6AXIMM@ZA			; AGKCommand1791
PUBLIC	?AGKCommand1792@@3P6AXIM@ZA			; AGKCommand1792
PUBLIC	?AGKCommand1793@@3P6AXIM@ZA			; AGKCommand1793
PUBLIC	?AGKCommand1794@@3P6AXIH@ZA			; AGKCommand1794
PUBLIC	?AGKCommand1795@@3P6AXI@ZA			; AGKCommand1795
PUBLIC	?AGKCommand1796@@3P6AXII@ZA			; AGKCommand1796
PUBLIC	?AGKCommand1797@@3P6AXIH@ZA			; AGKCommand1797
PUBLIC	?AGKCommand1798@@3P6AXIH@ZA			; AGKCommand1798
PUBLIC	?AGKCommand1799@@3P6AXIH@ZA			; AGKCommand1799
PUBLIC	?AGKCommand1800@@3P6AXIH@ZA			; AGKCommand1800
PUBLIC	?AGKCommand1801@@3P6AMI@ZA			; AGKCommand1801
PUBLIC	?AGKCommand1802@@3P6AMI@ZA			; AGKCommand1802
PUBLIC	?AGKCommand1803@@3P6AMI@ZA			; AGKCommand1803
PUBLIC	?AGKCommand1804@@3P6AHI@ZA			; AGKCommand1804
PUBLIC	?AGKCommand1805@@3P6AHI@ZA			; AGKCommand1805
PUBLIC	?AGKCommand1806@@3P6AMI@ZA			; AGKCommand1806
PUBLIC	?AGKCommand1807@@3P6AMI@ZA			; AGKCommand1807
PUBLIC	?AGKCommand1808@@3P6AMI@ZA			; AGKCommand1808
PUBLIC	?AGKCommand1809@@3P6AMI@ZA			; AGKCommand1809
PUBLIC	?AGKCommand1810@@3P6AMI@ZA			; AGKCommand1810
PUBLIC	?AGKCommand1811@@3P6AMI@ZA			; AGKCommand1811
PUBLIC	?AGKCommand1812@@3P6AMI@ZA			; AGKCommand1812
PUBLIC	?AGKCommand1813@@3P6AMI@ZA			; AGKCommand1813
PUBLIC	?AGKCommand1814@@3P6AHI@ZA			; AGKCommand1814
PUBLIC	?AGKCommand1815@@3P6AXIMMMMM@ZA			; AGKCommand1815
PUBLIC	?AGKCommand1816@@3P6AXI@ZA			; AGKCommand1816
PUBLIC	?AGKCommand1817@@3P6AXIMIIII@ZA			; AGKCommand1817
PUBLIC	?AGKCommand1818@@3P6AXI@ZA			; AGKCommand1818
PUBLIC	?AGKCommand1819@@3P6AXIMM@ZA			; AGKCommand1819
PUBLIC	?AGKCommand1820@@3P6AXI@ZA			; AGKCommand1820
PUBLIC	?AGKCommand1821@@3P6AXIM@ZA			; AGKCommand1821
PUBLIC	?AGKCommand1822@@3P6AXIMMM@ZA			; AGKCommand1822
PUBLIC	?AGKCommand1823@@3P6AXIIHHHH@ZA			; AGKCommand1823
PUBLIC	?AGKCommand1824@@3P6AHII@ZA			; AGKCommand1824
PUBLIC	?AGKCommand1825@@3P6AHII@ZA			; AGKCommand1825
PUBLIC	?AGKCommand1826@@3P6AHII@ZA			; AGKCommand1826
PUBLIC	?AGKCommand1827@@3P6AHII@ZA			; AGKCommand1827
PUBLIC	?AGKCommand1828@@3P6AXIII@ZA			; AGKCommand1828
PUBLIC	?AGKCommand1829@@3P6AXII@ZA			; AGKCommand1829
PUBLIC	?AGKCommand1830@@3P6AXIMM@ZA			; AGKCommand1830
PUBLIC	?AGKCommand1831@@3P6AXIIMM@ZA			; AGKCommand1831
PUBLIC	?AGKCommand1832@@3P6APAEI@ZA			; AGKCommand1832
PUBLIC	?AGKCommand1833@@3P6AXPBDH@ZA			; AGKCommand1833
PUBLIC	?AGKCommand1834@@3P6AXXZA			; AGKCommand1834
PUBLIC	?AGKCommand1835@@3P6AHXZA			; AGKCommand1835
PUBLIC	?AGKCommand1836@@3P6AXI@ZA			; AGKCommand1836
PUBLIC	?AGKCommand1837@@3P6AXPBD@ZA			; AGKCommand1837
PUBLIC	?AGKCommand1838@@3P6AHXZA			; AGKCommand1838
PUBLIC	?AGKCommand1839@@3P6AXPBD@ZA			; AGKCommand1839
PUBLIC	?AGKCommand1840@@3P6APADXZA			; AGKCommand1840
PUBLIC	?AGKCommand1841@@3P6AXXZA			; AGKCommand1841
PUBLIC	?AGKCommand1842@@3P6AHXZA			; AGKCommand1842
PUBLIC	?AGKCommand1843@@3P6AXPBD@ZA			; AGKCommand1843
PUBLIC	?AGKCommand1844@@3P6AXM@ZA			; AGKCommand1844
PUBLIC	?AGKCommand1845@@3P6AXPBD@ZA			; AGKCommand1845
PUBLIC	?AGKCommand1846@@3P6AHXZA			; AGKCommand1846
PUBLIC	?AGKCommand1847@@3P6AXXZA			; AGKCommand1847
PUBLIC	?AGKCommand1848@@3P6AHI@ZA			; AGKCommand1848
PUBLIC	?AGKCommand1849@@3P6AXIHH@ZA			; AGKCommand1849
PUBLIC	?AGKCommand1850@@3P6AXIMMMMMH@ZA		; AGKCommand1850
PUBLIC	?AGKCommand1851@@3P6AXIMMMH@ZA			; AGKCommand1851
PUBLIC	?AGKCommand1852@@3P6AXIIIMMH@ZA			; AGKCommand1852
PUBLIC	?AGKCommand1853@@3P6AXIIIHMMH@ZA		; AGKCommand1853
PUBLIC	?AGKCommand1854@@3P6AXIIIHMM@ZA			; AGKCommand1854
PUBLIC	?AGKCommand1855@@3P6AHI@ZA			; AGKCommand1855
PUBLIC	?AGKCommand1856@@3P6AHIH@ZA			; AGKCommand1856
PUBLIC	?AGKCommand1857@@3P6AMIHH@ZA			; AGKCommand1857
PUBLIC	?AGKCommand1858@@3P6AMIHH@ZA			; AGKCommand1858
PUBLIC	?AGKCommand1859@@3P6AMI@ZA			; AGKCommand1859
PUBLIC	?AGKCommand1860@@3P6AMI@ZA			; AGKCommand1860
PUBLIC	?AGKCommand1861@@3P6AXIMH@ZA			; AGKCommand1861
PUBLIC	?AGKCommand1862@@3P6AXIMH@ZA			; AGKCommand1862
PUBLIC	?AGKCommand1863@@3P6AXIMH@ZA			; AGKCommand1863
PUBLIC	?AGKCommand1864@@3P6AXIHH@ZA			; AGKCommand1864
PUBLIC	?AGKCommand1865@@3P6AXIHH@ZA			; AGKCommand1865
PUBLIC	?AGKCommand1866@@3P6AXIIH@ZA			; AGKCommand1866
PUBLIC	?AGKCommand1867@@3P6AXIIHH@ZA			; AGKCommand1867
PUBLIC	?AGKCommand1868@@3P6AXIIH@ZA			; AGKCommand1868
PUBLIC	?AGKCommand1869@@3P6AXIIHH@ZA			; AGKCommand1869
PUBLIC	?AGKCommand1870@@3P6AXIIIMMMMMH@ZA		; AGKCommand1870
PUBLIC	?AGKCommand1871@@3P6AIIIMMMMMH@ZA		; AGKCommand1871
PUBLIC	?AGKCommand1872@@3P6AXIM@ZA			; AGKCommand1872
PUBLIC	?AGKCommand1873@@3P6AXIMM@ZA			; AGKCommand1873
PUBLIC	?AGKCommand1874@@3P6AXI@ZA			; AGKCommand1874
PUBLIC	?AGKCommand1875@@3P6AXI@ZA			; AGKCommand1875
PUBLIC	?AGKCommand1876@@3P6AXII@ZA			; AGKCommand1876
PUBLIC	?AGKCommand1877@@3P6AXII@ZA			; AGKCommand1877
PUBLIC	?AGKCommand1878@@3P6AXII@ZA			; AGKCommand1878
PUBLIC	?AGKCommand1879@@3P6AXII@ZA			; AGKCommand1879
PUBLIC	?AGKCommand1880@@3P6AXIII@ZA			; AGKCommand1880
PUBLIC	?AGKCommand1881@@3P6AXIII@ZA			; AGKCommand1881
PUBLIC	?AGKCommand1882@@3P6AXII@ZA			; AGKCommand1882
PUBLIC	?AGKCommand1883@@3P6AXII@ZA			; AGKCommand1883
PUBLIC	?AGKCommand1884@@3P6AXII@ZA			; AGKCommand1884
PUBLIC	?AGKCommand1885@@3P6AXII@ZA			; AGKCommand1885
PUBLIC	?AGKCommand1886@@3P6AHI@ZA			; AGKCommand1886
PUBLIC	?AGKCommand1887@@3P6AXIHH@ZA			; AGKCommand1887
PUBLIC	?AGKCommand1888@@3P6AHI@ZA			; AGKCommand1888
PUBLIC	?AGKCommand1889@@3P6AHI@ZA			; AGKCommand1889
PUBLIC	?AGKCommand1890@@3P6AXPBD@ZA			; AGKCommand1890
PUBLIC	?AGKCommand1891@@3P6AHXZA			; AGKCommand1891
PUBLIC	?AGKCommand1892@@3P6AHXZA			; AGKCommand1892
PUBLIC	?AGKCommand1893@@3P6APADPBD0@ZA			; AGKCommand1893
PUBLIC	?AGKCommand1894@@3P6AXPBD0@ZA			; AGKCommand1894
PUBLIC	?AGKCommand1895@@3P6AXPBD@ZA			; AGKCommand1895
PUBLIC	?AGKCommand1896@@3P6AHXZA			; AGKCommand1896
PUBLIC	?AGKCommand1897@@3P6AHPBD@ZA			; AGKCommand1897
PUBLIC	?AGKCommand1898@@3P6AHPBD@ZA			; AGKCommand1898
PUBLIC	?AGKCommand1899@@3P6AHPBD@ZA			; AGKCommand1899
PUBLIC	?AGKCommand1900@@3P6AXPBD@ZA			; AGKCommand1900
PUBLIC	?AGKCommand1901@@3P6AXI@ZA			; AGKCommand1901
PUBLIC	?AGKCommand1902@@3P6AXMMM@ZA			; AGKCommand1902
PUBLIC	?AGKCommand1903@@3P6AXXZA			; AGKCommand1903
PUBLIC	?AGKCommand1904@@3P6AHXZA			; AGKCommand1904
PUBLIC	?AGKCommand1905@@3P6AXXZA			; AGKCommand1905
PUBLIC	?AGKCommand1906@@3P6AXXZA			; AGKCommand1906
PUBLIC	?AGKCommand1907@@3P6AXXZA			; AGKCommand1907
PUBLIC	?AGKCommand1908@@3P6AXH@ZA			; AGKCommand1908
PUBLIC	?AGKCommand1909@@3P6AXH@ZA			; AGKCommand1909
PUBLIC	?AGKCommand1910@@3P6AMXZA			; AGKCommand1910
PUBLIC	?AGKCommand1911@@3P6AHMM@ZA			; AGKCommand1911
PUBLIC	?AGKCommand1912@@3P6AMH@ZA			; AGKCommand1912
PUBLIC	?AGKCommand1913@@3P6AMH@ZA			; AGKCommand1913
PUBLIC	?AGKCommand1914@@3P6AMH@ZA			; AGKCommand1914
PUBLIC	?AGKCommand1915@@3P6AMH@ZA			; AGKCommand1915
PUBLIC	?AGKCommand1916@@3P6AMH@ZA			; AGKCommand1916
PUBLIC	?AGKCommand1917@@3P6AMH@ZA			; AGKCommand1917
PUBLIC	?AGKCommand1918@@3P6AHH@ZA			; AGKCommand1918
PUBLIC	?AGKCommand1919@@3P6AXXZA			; AGKCommand1919
PUBLIC	?AGKCommand1920@@3P6AHH@ZA			; AGKCommand1920
PUBLIC	?AGKCommand1921@@3P6AMH@ZA			; AGKCommand1921
PUBLIC	?AGKCommand1922@@3P6AMH@ZA			; AGKCommand1922
PUBLIC	?AGKCommand1923@@3P6AMH@ZA			; AGKCommand1923
PUBLIC	?AGKCommand1924@@3P6AMH@ZA			; AGKCommand1924
PUBLIC	?AGKCommand1925@@3P6AMH@ZA			; AGKCommand1925
PUBLIC	?AGKCommand1926@@3P6AMH@ZA			; AGKCommand1926
PUBLIC	?AGKCommand1927@@3P6AMH@ZA			; AGKCommand1927
PUBLIC	?AGKCommand1928@@3P6AMH@ZA			; AGKCommand1928
PUBLIC	?AGKCommand1929@@3P6AXXZA			; AGKCommand1929
PUBLIC	?AGKCommand1930@@3P6AHH@ZA			; AGKCommand1930
PUBLIC	?AGKCommand1931@@3P6AHH@ZA			; AGKCommand1931
PUBLIC	?AGKCommand1932@@3P6AXHH@ZA			; AGKCommand1932
PUBLIC	?AGKCommand1933@@3P6AHH@ZA			; AGKCommand1933
PUBLIC	?AGKCommand1934@@3P6AXH@ZA			; AGKCommand1934
PUBLIC	?AGKCommand1935@@3P6AXI@ZA			; AGKCommand1935
PUBLIC	?AGKCommand1936@@3P6AXIIHH@ZA			; AGKCommand1936
PUBLIC	?AGKCommand1937@@3P6AXH@ZA			; AGKCommand1937
PUBLIC	?AGKCommand1938@@3P6AXIMMM@ZA			; AGKCommand1938
PUBLIC	?AGKCommand1939@@3P6AXPBDH@ZA			; AGKCommand1939
PUBLIC	?AGKCommand1940@@3P6AXH@ZA			; AGKCommand1940
PUBLIC	?AGKCommand1941@@3P6AXPBD0@ZA			; AGKCommand1941
PUBLIC	?AGKCommand1942@@3P6AHXZA			; AGKCommand1942
PUBLIC	?AGKCommand1943@@3P6AXXZA			; AGKCommand1943
PUBLIC	?AGKCommand1944@@3P6AHXZA			; AGKCommand1944
PUBLIC	?AGKCommand1945@@3P6AHXZA			; AGKCommand1945
PUBLIC	?AGKCommand1946@@3P6APADH@ZA			; AGKCommand1946
PUBLIC	?AGKCommand1947@@3P6APADH@ZA			; AGKCommand1947
PUBLIC	?AGKCommand1948@@3P6AXH@ZA			; AGKCommand1948
PUBLIC	?AGKCommand1949@@3P6AXIPBD0@ZA			; AGKCommand1949
PUBLIC	?AGKCommand1950@@3P6AXIPBD@ZA			; AGKCommand1950
PUBLIC	?AGKCommand1951@@3P6AHI@ZA			; AGKCommand1951
PUBLIC	?AGKCommand1952@@3P6APADH@ZA			; AGKCommand1952
PUBLIC	?AGKCommand1953@@3P6AXPBD@ZA			; AGKCommand1953
PUBLIC	?AGKCommand1954@@3P6AHI@ZA			; AGKCommand1954
PUBLIC	?AGKCommand1955@@3P6AHI@ZA			; AGKCommand1955
PUBLIC	?AGKCommand1956@@3P6AHI@ZA			; AGKCommand1956
PUBLIC	?AGKCommand1957@@3P6AXI@ZA			; AGKCommand1957
PUBLIC	?AGKCommand1958@@3P6AXI@ZA			; AGKCommand1958
PUBLIC	?AGKCommand1959@@3P6AXPBD@ZA			; AGKCommand1959
PUBLIC	?AGKCommand1960@@3P6APADXZA			; AGKCommand1960
PUBLIC	?AGKCommand1961@@3P6AXIH@ZA			; AGKCommand1961
PUBLIC	?AGKCommand1962@@3P6AHXZA			; AGKCommand1962
PUBLIC	?AGKCommand1963@@3P6AHI@ZA			; AGKCommand1963
PUBLIC	?AGKCommand1964@@3P6AHI@ZA			; AGKCommand1964
PUBLIC	?AGKCommand1965@@3P6APADXZA			; AGKCommand1965
PUBLIC	?AGKCommand1966@@3P6AHXZA			; AGKCommand1966
PUBLIC	?AGKCommand1967@@3P6AHII@ZA			; AGKCommand1967
PUBLIC	?AGKCommand1968@@3P6AHII@ZA			; AGKCommand1968
PUBLIC	?AGKCommand1969@@3P6AII@ZA			; AGKCommand1969
PUBLIC	?AGKCommand1970@@3P6APADXZA			; AGKCommand1970
PUBLIC	?AGKCommand1971@@3P6AXIH@ZA			; AGKCommand1971
PUBLIC	?AGKCommand1972@@3P6AHH@ZA			; AGKCommand1972
PUBLIC	?AGKCommand1973@@3P6AHH@ZA			; AGKCommand1973
PUBLIC	?AGKCommand1974@@3P6AHH@ZA			; AGKCommand1974
PUBLIC	?AGKCommand1975@@3P6AHH@ZA			; AGKCommand1975
PUBLIC	?AGKCommand1976@@3P6AXXZA			; AGKCommand1976
PUBLIC	?AGKCommand1977@@3P6AXPBD00@ZA			; AGKCommand1977
PUBLIC	?AGKCommand1978@@3P6AIPBDMMMHHHH@ZA		; AGKCommand1978
PUBLIC	?AGKCommand1979@@3P6AXIPBDMMMHHHH@ZA		; AGKCommand1979
PUBLIC	?AGKCommand1980@@3P6AXIHH@ZA			; AGKCommand1980
PUBLIC	?AGKCommand1981@@3P6AXIIH@ZA			; AGKCommand1981
PUBLIC	?AGKCommand1982@@3P6APADII@ZA			; AGKCommand1982
PUBLIC	?AGKCommand1983@@3P6AII@ZA			; AGKCommand1983
PUBLIC	?AGKCommand1984@@3P6APADI@ZA			; AGKCommand1984
PUBLIC	?AGKCommand1985@@3P6AXPBD0M@ZA			; AGKCommand1985
PUBLIC	?AGKCommand1986@@3P6AXPBD@ZA			; AGKCommand1986
PUBLIC	?AGKCommand1987@@3P6AHI@ZA			; AGKCommand1987
PUBLIC	?AGKCommand1988@@3P6AIPBDH@ZA			; AGKCommand1988
PUBLIC	?AGKCommand1989@@3P6AHIPBDH@ZA			; AGKCommand1989
PUBLIC	?AGKCommand1990@@3P6AXIIPBDH@ZA			; AGKCommand1990
PUBLIC	?AGKCommand1991@@3P6AII@ZA			; AGKCommand1991
PUBLIC	?AGKCommand1992@@3P6AXI@ZA			; AGKCommand1992
PUBLIC	?AGKCommand1993@@3P6AXPBD00@ZA			; AGKCommand1993
PUBLIC	?AGKCommand1994@@3P6AMXZA			; AGKCommand1994
PUBLIC	?AGKCommand1995@@3P6AHXZA			; AGKCommand1995
PUBLIC	?AGKCommand1996@@3P6AHXZA			; AGKCommand1996
PUBLIC	?AGKCommand1997@@3P6AHXZA			; AGKCommand1997
PUBLIC	?AGKCommand1998@@3P6AXXZA			; AGKCommand1998
PUBLIC	?AGKCommand1999@@3P6AXXZA			; AGKCommand1999
PUBLIC	?AGKCommand2000@@3P6AIPBD@ZA			; AGKCommand2000
PUBLIC	?AGKCommand2001@@3P6AXIIH@ZA			; AGKCommand2001
PUBLIC	?AGKCommand2002@@3P6AXIPBDIM@ZA			; AGKCommand2002
PUBLIC	?AGKCommand2003@@3P6AXIPBDIMM@ZA		; AGKCommand2003
PUBLIC	?AGKCommand2004@@3P6AXIPBDIMMM@ZA		; AGKCommand2004
PUBLIC	?AGKCommand2005@@3P6AXIPBDIMMMM@ZA		; AGKCommand2005
PUBLIC	?AGKCommand2006@@3P6AXI@ZA			; AGKCommand2006
PUBLIC	?AGKCommand2007@@3P6AXIPBDIM@ZA			; AGKCommand2007
PUBLIC	?AGKCommand2008@@3P6AXIPBDIMM@ZA		; AGKCommand2008
PUBLIC	?AGKCommand2009@@3P6AXIPBDIMMM@ZA		; AGKCommand2009
PUBLIC	?AGKCommand2010@@3P6AXIPBDIMMMM@ZA		; AGKCommand2010
PUBLIC	?AGKCommand2011@@3P6AMI@ZA			; AGKCommand2011
PUBLIC	?AGKCommand2012@@3P6AHXZA			; AGKCommand2012
PUBLIC	?AGKCommand2013@@3P6AHXZA			; AGKCommand2013
PUBLIC	?AGKCommand2014@@3P6AHXZA			; AGKCommand2014
PUBLIC	?AGKCommand2015@@3P6AMXZA			; AGKCommand2015
PUBLIC	?AGKCommand2016@@3P6AIIIII@ZA			; AGKCommand2016
PUBLIC	?AGKCommand2017@@3P6AII@ZA			; AGKCommand2017
PUBLIC	?AGKCommand2018@@3P6AXH@ZA			; AGKCommand2018
PUBLIC	?AGKCommand2019@@3P6AXXZA			; AGKCommand2019
PUBLIC	?AGKCommand2020@@3P6AHPBD@ZA			; AGKCommand2020
PUBLIC	?AGKCommand2021@@3P6AXMMHHM@ZA			; AGKCommand2021
PUBLIC	?AGKCommand2022@@3P6AXPBD000@ZA			; AGKCommand2022
PUBLIC	?AGKCommand2023@@3P6AXHHPBD0@ZA			; AGKCommand2023
PUBLIC	?AGKCommand2024@@3P6AXPBD@ZA			; AGKCommand2024
PUBLIC	?AGKCommand2025@@3P6AXPBD@ZA			; AGKCommand2025
PUBLIC	?AGKCommand2026@@3P6APADXZA			; AGKCommand2026
PUBLIC	?AGKCommand2027@@3P6AII@ZA			; AGKCommand2027
PUBLIC	?AGKCommand2028@@3P6APAXI@ZA			; AGKCommand2028
PUBLIC	?AGKCommand2029@@3P6AXIH@ZA			; AGKCommand2029
PUBLIC	?GetAGKFunction@@3P6AP6AXXZPBD@ZA		; GetAGKFunction
_BSS	SEGMENT
?AGKCommand0@@3P6APADI@ZA DD 01H DUP (?)		; AGKCommand0
?AGKCommand1@@3P6AXPAD@ZA DD 01H DUP (?)		; AGKCommand1
?AGKCommand2@@3P6AMM@ZA DD 01H DUP (?)			; AGKCommand2
?AGKCommand3@@3P6AMM@ZA DD 01H DUP (?)			; AGKCommand3
?AGKCommand4@@3P6AMM@ZA DD 01H DUP (?)			; AGKCommand4
?AGKCommand5@@3P6AMM@ZA DD 01H DUP (?)			; AGKCommand5
?AGKCommand6@@3P6AXH@ZA DD 01H DUP (?)			; AGKCommand6
?AGKCommand7@@3P6AXMH@ZA DD 01H DUP (?)			; AGKCommand7
?AGKCommand8@@3P6AXHHHH@ZA DD 01H DUP (?)		; AGKCommand8
?AGKCommand9@@3P6AXH@ZA DD 01H DUP (?)			; AGKCommand9
?AGKCommand10@@3P6AXM@ZA DD 01H DUP (?)			; AGKCommand10
?AGKCommand11@@3P6AXHH@ZA DD 01H DUP (?)		; AGKCommand11
?AGKCommand12@@3P6AXXZA DD 01H DUP (?)			; AGKCommand12
?AGKCommand13@@3P6APADXZA DD 01H DUP (?)		; AGKCommand13
?AGKCommand14@@3P6AXMMMM@ZA DD 01H DUP (?)		; AGKCommand14
?AGKCommand15@@3P6AXHH@ZA DD 01H DUP (?)		; AGKCommand15
?AGKCommand16@@3P6AXH@ZA DD 01H DUP (?)			; AGKCommand16
?AGKCommand17@@3P6AHXZA DD 01H DUP (?)			; AGKCommand17
?AGKCommand18@@3P6AHXZA DD 01H DUP (?)			; AGKCommand18
?AGKCommand19@@3P6AXHH@ZA DD 01H DUP (?)		; AGKCommand19
?AGKCommand20@@3P6AXII@ZA DD 01H DUP (?)		; AGKCommand20
?AGKCommand21@@3P6AHXZA DD 01H DUP (?)			; AGKCommand21
?AGKCommand22@@3P6AHXZA DD 01H DUP (?)			; AGKCommand22
?AGKCommand23@@3P6AMXZA DD 01H DUP (?)			; AGKCommand23
?AGKCommand24@@3P6AMXZA DD 01H DUP (?)			; AGKCommand24
?AGKCommand25@@3P6AMXZA DD 01H DUP (?)			; AGKCommand25
?AGKCommand26@@3P6AMXZA DD 01H DUP (?)			; AGKCommand26
?AGKCommand27@@3P6AMXZA DD 01H DUP (?)			; AGKCommand27
?AGKCommand28@@3P6AHXZA DD 01H DUP (?)			; AGKCommand28
?AGKCommand29@@3P6AHXZA DD 01H DUP (?)			; AGKCommand29
?AGKCommand30@@3P6AHXZA DD 01H DUP (?)			; AGKCommand30
?AGKCommand31@@3P6AXI@ZA DD 01H DUP (?)			; AGKCommand31
?AGKCommand32@@3P6AXI@ZA DD 01H DUP (?)			; AGKCommand32
?AGKCommand33@@3P6AXI@ZA DD 01H DUP (?)			; AGKCommand33
?AGKCommand34@@3P6AXI@ZA DD 01H DUP (?)			; AGKCommand34
?AGKCommand35@@3P6AXMM@ZA DD 01H DUP (?)		; AGKCommand35
?AGKCommand36@@3P6AXM@ZA DD 01H DUP (?)			; AGKCommand36
?AGKCommand37@@3P6AXH@ZA DD 01H DUP (?)			; AGKCommand37
?AGKCommand38@@3P6AMXZA DD 01H DUP (?)			; AGKCommand38
?AGKCommand39@@3P6AMXZA DD 01H DUP (?)			; AGKCommand39
?AGKCommand40@@3P6AMXZA DD 01H DUP (?)			; AGKCommand40
?AGKCommand41@@3P6AXXZA DD 01H DUP (?)			; AGKCommand41
?AGKCommand42@@3P6AXXZA DD 01H DUP (?)			; AGKCommand42
?AGKCommand43@@3P6AXM@ZA DD 01H DUP (?)			; AGKCommand43
?AGKCommand44@@3P6AXM@ZA DD 01H DUP (?)			; AGKCommand44
?AGKCommand45@@3P6AXM@ZA DD 01H DUP (?)			; AGKCommand45
?AGKCommand46@@3P6AXM@ZA DD 01H DUP (?)			; AGKCommand46
?AGKCommand47@@3P6AXXZA DD 01H DUP (?)			; AGKCommand47
?AGKCommand48@@3P6AXXZA DD 01H DUP (?)			; AGKCommand48
?AGKCommand49@@3P6AXXZA DD 01H DUP (?)			; AGKCommand49
?AGKCommand50@@3P6AXXZA DD 01H DUP (?)			; AGKCommand50
?AGKCommand51@@3P6AXXZA DD 01H DUP (?)			; AGKCommand51
?AGKCommand52@@3P6AXXZA DD 01H DUP (?)			; AGKCommand52
?AGKCommand53@@3P6AXXZA DD 01H DUP (?)			; AGKCommand53
?AGKCommand54@@3P6AXH@ZA DD 01H DUP (?)			; AGKCommand54
?AGKCommand55@@3P6AMXZA DD 01H DUP (?)			; AGKCommand55
?AGKCommand56@@3P6AXXZA DD 01H DUP (?)			; AGKCommand56
?AGKCommand57@@3P6AMXZA DD 01H DUP (?)			; AGKCommand57
?AGKCommand58@@3P6AHXZA DD 01H DUP (?)			; AGKCommand58
?AGKCommand59@@3P6AMXZA DD 01H DUP (?)			; AGKCommand59
?AGKCommand60@@3P6AIXZA DD 01H DUP (?)			; AGKCommand60
?AGKCommand61@@3P6APADXZA DD 01H DUP (?)		; AGKCommand61
?AGKCommand62@@3P6AHXZA DD 01H DUP (?)			; AGKCommand62
?AGKCommand63@@3P6APADPBD@ZA DD 01H DUP (?)		; AGKCommand63
?AGKCommand64@@3P6APADPBD@ZA DD 01H DUP (?)		; AGKCommand64
?AGKCommand65@@3P6APADPBD@ZA DD 01H DUP (?)		; AGKCommand65
?AGKCommand66@@3P6APADPBD@ZA DD 01H DUP (?)		; AGKCommand66
?AGKCommand67@@3P6APADPBD@ZA DD 01H DUP (?)		; AGKCommand67
?AGKCommand68@@3P6AXI@ZA DD 01H DUP (?)			; AGKCommand68
?AGKCommand69@@3P6AIXZA DD 01H DUP (?)			; AGKCommand69
?AGKCommand70@@3P6AIII@ZA DD 01H DUP (?)		; AGKCommand70
?AGKCommand71@@3P6AHH@ZA DD 01H DUP (?)			; AGKCommand71
?AGKCommand72@@3P6AXI@ZA DD 01H DUP (?)			; AGKCommand72
?AGKCommand73@@3P6AHXZA DD 01H DUP (?)			; AGKCommand73
?AGKCommand74@@3P6AHHH@ZA DD 01H DUP (?)		; AGKCommand74
?AGKCommand75@@3P6AMMM@ZA DD 01H DUP (?)		; AGKCommand75
?AGKCommand76@@3P6AMMM@ZA DD 01H DUP (?)		; AGKCommand76
?AGKCommand77@@3P6AXH@ZA DD 01H DUP (?)			; AGKCommand77
?AGKCommand78@@3P6AXH@ZA DD 01H DUP (?)			; AGKCommand78
?AGKCommand79@@3P6AXH@ZA DD 01H DUP (?)			; AGKCommand79
?AGKCommand80@@3P6AXH@ZA DD 01H DUP (?)			; AGKCommand80
?AGKCommand81@@3P6AMXZA DD 01H DUP (?)			; AGKCommand81
?AGKCommand82@@3P6AIXZA DD 01H DUP (?)			; AGKCommand82
?AGKCommand83@@3P6AIXZA DD 01H DUP (?)			; AGKCommand83
?AGKCommand84@@3P6AXI@ZA DD 01H DUP (?)			; AGKCommand84
?AGKCommand85@@3P6AXI@ZA DD 01H DUP (?)			; AGKCommand85
?AGKCommand86@@3P6AXIII@ZA DD 01H DUP (?)		; AGKCommand86
?AGKCommand87@@3P6AXIII@ZA DD 01H DUP (?)		; AGKCommand87
?AGKCommand88@@3P6APAVcImage@@I@ZA DD 01H DUP (?)	; AGKCommand88
?AGKCommand89@@3P6AII@ZA DD 01H DUP (?)			; AGKCommand89
?AGKCommand90@@3P6AXIPBDH@ZA DD 01H DUP (?)		; AGKCommand90
?AGKCommand91@@3P6AXIPBD@ZA DD 01H DUP (?)		; AGKCommand91
?AGKCommand92@@3P6AIPBDH@ZA DD 01H DUP (?)		; AGKCommand92
?AGKCommand93@@3P6AIPBD@ZA DD 01H DUP (?)		; AGKCommand93
?AGKCommand94@@3P6AXIIPBD@ZA DD 01H DUP (?)		; AGKCommand94
?AGKCommand95@@3P6AIIPBD@ZA DD 01H DUP (?)		; AGKCommand95
?AGKCommand96@@3P6AXIPBDMMH@ZA DD 01H DUP (?)		; AGKCommand96
?AGKCommand97@@3P6AIPBDMMH@ZA DD 01H DUP (?)		; AGKCommand97
?AGKCommand98@@3P6AXIIIII@ZA DD 01H DUP (?)		; AGKCommand98
?AGKCommand99@@3P6AIIIII@ZA DD 01H DUP (?)		; AGKCommand99
?AGKCommand100@@3P6AXIIIII@ZA DD 01H DUP (?)		; AGKCommand100
?AGKCommand101@@3P6AIIIII@ZA DD 01H DUP (?)		; AGKCommand101
?AGKCommand102@@3P6AII@ZA DD 01H DUP (?)		; AGKCommand102
?AGKCommand103@@3P6AXI@ZA DD 01H DUP (?)		; AGKCommand103
?AGKCommand104@@3P6AXXZA DD 01H DUP (?)			; AGKCommand104
?AGKCommand105@@3P6AMI@ZA DD 01H DUP (?)		; AGKCommand105
?AGKCommand106@@3P6AMI@ZA DD 01H DUP (?)		; AGKCommand106
?AGKCommand107@@3P6AXII@ZA DD 01H DUP (?)		; AGKCommand107
?AGKCommand108@@3P6AXII@ZA DD 01H DUP (?)		; AGKCommand108
?AGKCommand109@@3P6AXII@ZA DD 01H DUP (?)		; AGKCommand109
?AGKCommand110@@3P6AXII@ZA DD 01H DUP (?)		; AGKCommand110
?AGKCommand111@@3P6AXIIHHHH@ZA DD 01H DUP (?)		; AGKCommand111
?AGKCommand112@@3P6AXIHHH@ZA DD 01H DUP (?)		; AGKCommand112
?AGKCommand113@@3P6AXIPBD@ZA DD 01H DUP (?)		; AGKCommand113
?AGKCommand114@@3P6AIMMMM@ZA DD 01H DUP (?)		; AGKCommand114
?AGKCommand115@@3P6AXIMMMM@ZA DD 01H DUP (?)		; AGKCommand115
?AGKCommand116@@3P6APADI@ZA DD 01H DUP (?)		; AGKCommand116
?AGKCommand117@@3P6AIIHHHH@ZA DD 01H DUP (?)		; AGKCommand117
?AGKCommand118@@3P6AXIIHHHH@ZA DD 01H DUP (?)		; AGKCommand118
?AGKCommand119@@3P6AXIHH@ZA DD 01H DUP (?)		; AGKCommand119
?AGKCommand120@@3P6AIXZA DD 01H DUP (?)			; AGKCommand120
?AGKCommand121@@3P6AIXZA DD 01H DUP (?)			; AGKCommand121
?AGKCommand122@@3P6AIXZA DD 01H DUP (?)			; AGKCommand122
?AGKCommand123@@3P6AIXZA DD 01H DUP (?)			; AGKCommand123
?AGKCommand124@@3P6AIXZA DD 01H DUP (?)			; AGKCommand124
?AGKCommand125@@3P6AIXZA DD 01H DUP (?)			; AGKCommand125
?AGKCommand126@@3P6APADI@ZA DD 01H DUP (?)		; AGKCommand126
?AGKCommand127@@3P6AIPBDH@ZA DD 01H DUP (?)		; AGKCommand127
?AGKCommand128@@3P6AXIM@ZA DD 01H DUP (?)		; AGKCommand128
?AGKCommand129@@3P6AXH@ZA DD 01H DUP (?)		; AGKCommand129
?AGKCommand130@@3P6APAVcSprite@@I@ZA DD 01H DUP (?)	; AGKCommand130
?AGKCommand131@@3P6AII@ZA DD 01H DUP (?)		; AGKCommand131
?AGKCommand132@@3P6AXII@ZA DD 01H DUP (?)		; AGKCommand132
?AGKCommand133@@3P6AII@ZA DD 01H DUP (?)		; AGKCommand133
?AGKCommand134@@3P6AIPBD@ZA DD 01H DUP (?)		; AGKCommand134
?AGKCommand135@@3P6AXIPBD@ZA DD 01H DUP (?)		; AGKCommand135
?AGKCommand136@@3P6AXII@ZA DD 01H DUP (?)		; AGKCommand136
?AGKCommand137@@3P6AII@ZA DD 01H DUP (?)		; AGKCommand137
?AGKCommand138@@3P6AXI@ZA DD 01H DUP (?)		; AGKCommand138
?AGKCommand139@@3P6AIXZA DD 01H DUP (?)			; AGKCommand139
?AGKCommand140@@3P6AII@ZA DD 01H DUP (?)		; AGKCommand140
?AGKCommand141@@3P6AXI@ZA DD 01H DUP (?)		; AGKCommand141
?AGKCommand142@@3P6AXXZA DD 01H DUP (?)			; AGKCommand142
?AGKCommand143@@3P6AXII@ZA DD 01H DUP (?)		; AGKCommand143
?AGKCommand144@@3P6AXIIH@ZA DD 01H DUP (?)		; AGKCommand144
?AGKCommand145@@3P6AXIIH@ZA DD 01H DUP (?)		; AGKCommand145
?AGKCommand146@@3P6AXIMMMMMMMM@ZA DD 01H DUP (?)	; AGKCommand146
?AGKCommand147@@3P6AXI@ZA DD 01H DUP (?)		; AGKCommand147
?AGKCommand148@@3P6AXIMM@ZA DD 01H DUP (?)		; AGKCommand148
?AGKCommand149@@3P6AXIMM@ZA DD 01H DUP (?)		; AGKCommand149
?AGKCommand150@@3P6AXIM@ZA DD 01H DUP (?)		; AGKCommand150
?AGKCommand151@@3P6AXIM@ZA DD 01H DUP (?)		; AGKCommand151
?AGKCommand152@@3P6AXIM@ZA DD 01H DUP (?)		; AGKCommand152
?AGKCommand153@@3P6AXIM@ZA DD 01H DUP (?)		; AGKCommand153
?AGKCommand154@@3P6AXIH@ZA DD 01H DUP (?)		; AGKCommand154
?AGKCommand155@@3P6AXIHH@ZA DD 01H DUP (?)		; AGKCommand155
?AGKCommand156@@3P6AXIH@ZA DD 01H DUP (?)		; AGKCommand156
?AGKCommand157@@3P6AXIH@ZA DD 01H DUP (?)		; AGKCommand157
?AGKCommand158@@3P6AXIH@ZA DD 01H DUP (?)		; AGKCommand158
?AGKCommand159@@3P6AMI@ZA DD 01H DUP (?)		; AGKCommand159
?AGKCommand160@@3P6AMI@ZA DD 01H DUP (?)		; AGKCommand160
?AGKCommand161@@3P6AMI@ZA DD 01H DUP (?)		; AGKCommand161
?AGKCommand162@@3P6AMI@ZA DD 01H DUP (?)		; AGKCommand162
?AGKCommand163@@3P6AMI@ZA DD 01H DUP (?)		; AGKCommand163
?AGKCommand164@@3P6AMI@ZA DD 01H DUP (?)		; AGKCommand164
?AGKCommand165@@3P6AMI@ZA DD 01H DUP (?)		; AGKCommand165
?AGKCommand166@@3P6AMI@ZA DD 01H DUP (?)		; AGKCommand166
?AGKCommand167@@3P6AMI@ZA DD 01H DUP (?)		; AGKCommand167
?AGKCommand168@@3P6AMI@ZA DD 01H DUP (?)		; AGKCommand168
?AGKCommand169@@3P6AMI@ZA DD 01H DUP (?)		; AGKCommand169
?AGKCommand170@@3P6AMI@ZA DD 01H DUP (?)		; AGKCommand170
?AGKCommand171@@3P6AHIMM@ZA DD 01H DUP (?)		; AGKCommand171
?AGKCommand172@@3P6AHMM@ZA DD 01H DUP (?)		; AGKCommand172
?AGKCommand173@@3P6AHHMM@ZA DD 01H DUP (?)		; AGKCommand173
?AGKCommand174@@3P6AHIMM@ZA DD 01H DUP (?)		; AGKCommand174
?AGKCommand175@@3P6AHI@ZA DD 01H DUP (?)		; AGKCommand175
?AGKCommand176@@3P6AII@ZA DD 01H DUP (?)		; AGKCommand176
?AGKCommand177@@3P6AII@ZA DD 01H DUP (?)		; AGKCommand177
?AGKCommand178@@3P6AII@ZA DD 01H DUP (?)		; AGKCommand178
?AGKCommand179@@3P6AII@ZA DD 01H DUP (?)		; AGKCommand179
?AGKCommand180@@3P6AHI@ZA DD 01H DUP (?)		; AGKCommand180
?AGKCommand181@@3P6AHI@ZA DD 01H DUP (?)		; AGKCommand181
?AGKCommand182@@3P6AHI@ZA DD 01H DUP (?)		; AGKCommand182
?AGKCommand183@@3P6AHI@ZA DD 01H DUP (?)		; AGKCommand183
?AGKCommand184@@3P6AMIH@ZA DD 01H DUP (?)		; AGKCommand184
?AGKCommand185@@3P6AMIH@ZA DD 01H DUP (?)		; AGKCommand185
?AGKCommand186@@3P6AHIM@ZA DD 01H DUP (?)		; AGKCommand186
?AGKCommand187@@3P6AHIM@ZA DD 01H DUP (?)		; AGKCommand187
?AGKCommand188@@3P6AMIMM@ZA DD 01H DUP (?)		; AGKCommand188
?AGKCommand189@@3P6AMIMM@ZA DD 01H DUP (?)		; AGKCommand189
?AGKCommand190@@3P6AMIMM@ZA DD 01H DUP (?)		; AGKCommand190
?AGKCommand191@@3P6AMIMM@ZA DD 01H DUP (?)		; AGKCommand191
?AGKCommand192@@3P6AXIMM@ZA DD 01H DUP (?)		; AGKCommand192
?AGKCommand193@@3P6AXIHHH@ZA DD 01H DUP (?)		; AGKCommand193
?AGKCommand194@@3P6AXII@ZA DD 01H DUP (?)		; AGKCommand194
?AGKCommand195@@3P6AXI@ZA DD 01H DUP (?)		; AGKCommand195
?AGKCommand196@@3P6AXIM@ZA DD 01H DUP (?)		; AGKCommand196
?AGKCommand197@@3P6AXI@ZA DD 01H DUP (?)		; AGKCommand197
?AGKCommand198@@3P6AXIM@ZA DD 01H DUP (?)		; AGKCommand198
?AGKCommand199@@3P6AXIMH@ZA DD 01H DUP (?)		; AGKCommand199
?AGKCommand200@@3P6AXIMHHH@ZA DD 01H DUP (?)		; AGKCommand200
?AGKCommand201@@3P6AXI@ZA DD 01H DUP (?)		; AGKCommand201
?AGKCommand202@@3P6AXI@ZA DD 01H DUP (?)		; AGKCommand202
?AGKCommand203@@3P6AXIH@ZA DD 01H DUP (?)		; AGKCommand203
?AGKCommand204@@3P6AHI@ZA DD 01H DUP (?)		; AGKCommand204
?AGKCommand205@@3P6AHI@ZA DD 01H DUP (?)		; AGKCommand205
?AGKCommand206@@3P6AXIH@ZA DD 01H DUP (?)		; AGKCommand206
?AGKCommand207@@3P6AXIMM@ZA DD 01H DUP (?)		; AGKCommand207
?AGKCommand208@@3P6AXIHHHH@ZA DD 01H DUP (?)		; AGKCommand208
?AGKCommand209@@3P6AXIH@ZA DD 01H DUP (?)		; AGKCommand209
?AGKCommand210@@3P6AXIH@ZA DD 01H DUP (?)		; AGKCommand210
?AGKCommand211@@3P6AXIH@ZA DD 01H DUP (?)		; AGKCommand211
?AGKCommand212@@3P6AXIH@ZA DD 01H DUP (?)		; AGKCommand212
?AGKCommand213@@3P6AXIM@ZA DD 01H DUP (?)		; AGKCommand213
?AGKCommand214@@3P6AXIMM@ZA DD 01H DUP (?)		; AGKCommand214
?AGKCommand215@@3P6AXIMM@ZA DD 01H DUP (?)		; AGKCommand215
?AGKCommand216@@3P6AXIH@ZA DD 01H DUP (?)		; AGKCommand216
?AGKCommand217@@3P6AXIMM@ZA DD 01H DUP (?)		; AGKCommand217
?AGKCommand218@@3P6AXIMM@ZA DD 01H DUP (?)		; AGKCommand218
?AGKCommand219@@3P6AXIMMMM@ZA DD 01H DUP (?)		; AGKCommand219
?AGKCommand220@@3P6AXII@ZA DD 01H DUP (?)		; AGKCommand220
?AGKCommand221@@3P6AXI@ZA DD 01H DUP (?)		; AGKCommand221
?AGKCommand222@@3P6AXM@ZA DD 01H DUP (?)		; AGKCommand222
?AGKCommand223@@3P6AXMM@ZA DD 01H DUP (?)		; AGKCommand223
?AGKCommand224@@3P6AXXZA DD 01H DUP (?)			; AGKCommand224
?AGKCommand225@@3P6AXXZA DD 01H DUP (?)			; AGKCommand225
?AGKCommand226@@3P6AXH@ZA DD 01H DUP (?)		; AGKCommand226
?AGKCommand227@@3P6AXH@ZA DD 01H DUP (?)		; AGKCommand227
?AGKCommand228@@3P6AXH@ZA DD 01H DUP (?)		; AGKCommand228
?AGKCommand229@@3P6AMXZA DD 01H DUP (?)			; AGKCommand229
?AGKCommand230@@3P6AHXZA DD 01H DUP (?)			; AGKCommand230
?AGKCommand231@@3P6AXH@ZA DD 01H DUP (?)		; AGKCommand231
?AGKCommand232@@3P6AXH@ZA DD 01H DUP (?)		; AGKCommand232
?AGKCommand233@@3P6AXH@ZA DD 01H DUP (?)		; AGKCommand233
?AGKCommand234@@3P6AXH@ZA DD 01H DUP (?)		; AGKCommand234
?AGKCommand235@@3P6AXH@ZA DD 01H DUP (?)		; AGKCommand235
?AGKCommand236@@3P6AIMMMMMH@ZA DD 01H DUP (?)		; AGKCommand236
?AGKCommand237@@3P6AXI@ZA DD 01H DUP (?)		; AGKCommand237
?AGKCommand238@@3P6AXIMM@ZA DD 01H DUP (?)		; AGKCommand238
?AGKCommand239@@3P6AXIM@ZA DD 01H DUP (?)		; AGKCommand239
?AGKCommand240@@3P6AXIM@ZA DD 01H DUP (?)		; AGKCommand240
?AGKCommand241@@3P6AXIH@ZA DD 01H DUP (?)		; AGKCommand241
?AGKCommand242@@3P6AXIMMMMM@ZA DD 01H DUP (?)		; AGKCommand242
?AGKCommand243@@3P6AXIMMM@ZA DD 01H DUP (?)		; AGKCommand243
?AGKCommand244@@3P6AXIIIMM@ZA DD 01H DUP (?)		; AGKCommand244
?AGKCommand245@@3P6AXIMMMMM@ZA DD 01H DUP (?)		; AGKCommand245
?AGKCommand246@@3P6AXIMMM@ZA DD 01H DUP (?)		; AGKCommand246
?AGKCommand247@@3P6AXIIIMM@ZA DD 01H DUP (?)		; AGKCommand247
?AGKCommand248@@3P6AXI@ZA DD 01H DUP (?)		; AGKCommand248
?AGKCommand249@@3P6AXIMM@ZA DD 01H DUP (?)		; AGKCommand249
?AGKCommand250@@3P6AXI@ZA DD 01H DUP (?)		; AGKCommand250
?AGKCommand251@@3P6AXIH@ZA DD 01H DUP (?)		; AGKCommand251
?AGKCommand252@@3P6AXI@ZA DD 01H DUP (?)		; AGKCommand252
?AGKCommand253@@3P6AXI@ZA DD 01H DUP (?)		; AGKCommand253
?AGKCommand254@@3P6AXIM@ZA DD 01H DUP (?)		; AGKCommand254
?AGKCommand255@@3P6AXIM@ZA DD 01H DUP (?)		; AGKCommand255
?AGKCommand256@@3P6AXIH@ZA DD 01H DUP (?)		; AGKCommand256
?AGKCommand257@@3P6AXIMM@ZA DD 01H DUP (?)		; AGKCommand257
?AGKCommand258@@3P6AXIM@ZA DD 01H DUP (?)		; AGKCommand258
?AGKCommand259@@3P6AXIM@ZA DD 01H DUP (?)		; AGKCommand259
?AGKCommand260@@3P6AXIM@ZA DD 01H DUP (?)		; AGKCommand260
?AGKCommand261@@3P6AXIH@ZA DD 01H DUP (?)		; AGKCommand261
?AGKCommand262@@3P6AXIM@ZA DD 01H DUP (?)		; AGKCommand262
?AGKCommand263@@3P6AXIH@ZA DD 01H DUP (?)		; AGKCommand263
?AGKCommand264@@3P6AXIH@ZA DD 01H DUP (?)		; AGKCommand264
?AGKCommand265@@3P6AXII@ZA DD 01H DUP (?)		; AGKCommand265
?AGKCommand266@@3P6AXIIH@ZA DD 01H DUP (?)		; AGKCommand266
?AGKCommand267@@3P6AXII@ZA DD 01H DUP (?)		; AGKCommand267
?AGKCommand268@@3P6AXIIH@ZA DD 01H DUP (?)		; AGKCommand268
?AGKCommand269@@3P6AXIMMMM@ZA DD 01H DUP (?)		; AGKCommand269
?AGKCommand270@@3P6AXIM@ZA DD 01H DUP (?)		; AGKCommand270
?AGKCommand271@@3P6AXIMMMM@ZA DD 01H DUP (?)		; AGKCommand271
?AGKCommand272@@3P6AXIM@ZA DD 01H DUP (?)		; AGKCommand272
?AGKCommand273@@3P6AMI@ZA DD 01H DUP (?)		; AGKCommand273
?AGKCommand274@@3P6AMI@ZA DD 01H DUP (?)		; AGKCommand274
?AGKCommand275@@3P6AMI@ZA DD 01H DUP (?)		; AGKCommand275
?AGKCommand276@@3P6AMI@ZA DD 01H DUP (?)		; AGKCommand276
?AGKCommand277@@3P6AXI@ZA DD 01H DUP (?)		; AGKCommand277
?AGKCommand278@@3P6AHI@ZA DD 01H DUP (?)		; AGKCommand278
?AGKCommand279@@3P6AXIIIMMMMH@ZA DD 01H DUP (?)		; AGKCommand279
?AGKCommand280@@3P6AXIIIMMH@ZA DD 01H DUP (?)		; AGKCommand280
?AGKCommand281@@3P6AXIIIMMMMH@ZA DD 01H DUP (?)		; AGKCommand281
?AGKCommand282@@3P6AXIIIMMMMMMMMMH@ZA DD 01H DUP (?)	; AGKCommand282
?AGKCommand283@@3P6AXIIMMM@ZA DD 01H DUP (?)		; AGKCommand283
?AGKCommand284@@3P6AXIIIMMMMH@ZA DD 01H DUP (?)		; AGKCommand284
?AGKCommand285@@3P6AXIIIMMH@ZA DD 01H DUP (?)		; AGKCommand285
?AGKCommand286@@3P6AXIIIM@ZA DD 01H DUP (?)		; AGKCommand286
?AGKCommand287@@3P6AIIIMMMMH@ZA DD 01H DUP (?)		; AGKCommand287
?AGKCommand288@@3P6AIIIMMH@ZA DD 01H DUP (?)		; AGKCommand288
?AGKCommand289@@3P6AIIIMMMMH@ZA DD 01H DUP (?)		; AGKCommand289
?AGKCommand290@@3P6AXIIMH@ZA DD 01H DUP (?)		; AGKCommand290
?AGKCommand291@@3P6AIMMMMMMMM@ZA DD 01H DUP (?)		; AGKCommand291
?AGKCommand292@@3P6AIIMMM@ZA DD 01H DUP (?)		; AGKCommand292
?AGKCommand293@@3P6AIIIMMMMH@ZA DD 01H DUP (?)		; AGKCommand293
?AGKCommand294@@3P6AIIIMMH@ZA DD 01H DUP (?)		; AGKCommand294
?AGKCommand295@@3P6AIIIM@ZA DD 01H DUP (?)		; AGKCommand295
?AGKCommand296@@3P6AXIMM@ZA DD 01H DUP (?)		; AGKCommand296
?AGKCommand297@@3P6AXI@ZA DD 01H DUP (?)		; AGKCommand297
?AGKCommand298@@3P6AXIMM@ZA DD 01H DUP (?)		; AGKCommand298
?AGKCommand299@@3P6AXI@ZA DD 01H DUP (?)		; AGKCommand299
?AGKCommand300@@3P6AXIMM@ZA DD 01H DUP (?)		; AGKCommand300
?AGKCommand301@@3P6AMI@ZA DD 01H DUP (?)		; AGKCommand301
?AGKCommand302@@3P6AMI@ZA DD 01H DUP (?)		; AGKCommand302
?AGKCommand303@@3P6AMI@ZA DD 01H DUP (?)		; AGKCommand303
?AGKCommand304@@3P6AHMMMM@ZA DD 01H DUP (?)		; AGKCommand304
?AGKCommand305@@3P6AHHMMMM@ZA DD 01H DUP (?)		; AGKCommand305
?AGKCommand306@@3P6AHIMMMM@ZA DD 01H DUP (?)		; AGKCommand306
?AGKCommand307@@3P6AHIMMMM@ZA DD 01H DUP (?)		; AGKCommand307
?AGKCommand308@@3P6AHMMMM@ZA DD 01H DUP (?)		; AGKCommand308
?AGKCommand309@@3P6AHHMMMM@ZA DD 01H DUP (?)		; AGKCommand309
?AGKCommand310@@3P6AHIMMMM@ZA DD 01H DUP (?)		; AGKCommand310
?AGKCommand311@@3P6APAVcSprite@@XZA DD 01H DUP (?)	; AGKCommand311
?AGKCommand312@@3P6AIXZA DD 01H DUP (?)			; AGKCommand312
?AGKCommand313@@3P6AMXZA DD 01H DUP (?)			; AGKCommand313
?AGKCommand314@@3P6AMXZA DD 01H DUP (?)			; AGKCommand314
?AGKCommand315@@3P6AMXZA DD 01H DUP (?)			; AGKCommand315
?AGKCommand316@@3P6AMXZA DD 01H DUP (?)			; AGKCommand316
?AGKCommand317@@3P6AMXZA DD 01H DUP (?)			; AGKCommand317
?AGKCommand318@@3P6AHIMMMM@ZA DD 01H DUP (?)		; AGKCommand318
?AGKCommand319@@3P6AHIMMM@ZA DD 01H DUP (?)		; AGKCommand319
?AGKCommand320@@3P6AHII@ZA DD 01H DUP (?)		; AGKCommand320
?AGKCommand321@@3P6AMII@ZA DD 01H DUP (?)		; AGKCommand321
?AGKCommand322@@3P6AMXZA DD 01H DUP (?)			; AGKCommand322
?AGKCommand323@@3P6AMXZA DD 01H DUP (?)			; AGKCommand323
?AGKCommand324@@3P6AMXZA DD 01H DUP (?)			; AGKCommand324
?AGKCommand325@@3P6AMXZA DD 01H DUP (?)			; AGKCommand325
?AGKCommand326@@3P6AHXZA DD 01H DUP (?)			; AGKCommand326
?AGKCommand327@@3P6AHXZA DD 01H DUP (?)			; AGKCommand327
?AGKCommand328@@3P6AMXZA DD 01H DUP (?)			; AGKCommand328
?AGKCommand329@@3P6AMXZA DD 01H DUP (?)			; AGKCommand329
?AGKCommand330@@3P6AIXZA DD 01H DUP (?)			; AGKCommand330
?AGKCommand331@@3P6AIXZA DD 01H DUP (?)			; AGKCommand331
?AGKCommand332@@3P6AHI@ZA DD 01H DUP (?)		; AGKCommand332
?AGKCommand333@@3P6AHXZA DD 01H DUP (?)			; AGKCommand333
?AGKCommand334@@3P6AMXZA DD 01H DUP (?)			; AGKCommand334
?AGKCommand335@@3P6AMXZA DD 01H DUP (?)			; AGKCommand335
?AGKCommand336@@3P6AIXZA DD 01H DUP (?)			; AGKCommand336
?AGKCommand337@@3P6AHII@ZA DD 01H DUP (?)		; AGKCommand337
?AGKCommand338@@3P6AMXZA DD 01H DUP (?)			; AGKCommand338
?AGKCommand339@@3P6AMXZA DD 01H DUP (?)			; AGKCommand339
?AGKCommand340@@3P6AMXZA DD 01H DUP (?)			; AGKCommand340
?AGKCommand341@@3P6AMXZA DD 01H DUP (?)			; AGKCommand341
?AGKCommand342@@3P6AXIMM@ZA DD 01H DUP (?)		; AGKCommand342
?AGKCommand343@@3P6AIMM@ZA DD 01H DUP (?)		; AGKCommand343
?AGKCommand344@@3P6AHI@ZA DD 01H DUP (?)		; AGKCommand344
?AGKCommand345@@3P6AXI@ZA DD 01H DUP (?)		; AGKCommand345
?AGKCommand346@@3P6AXIMM@ZA DD 01H DUP (?)		; AGKCommand346
?AGKCommand347@@3P6AXIH@ZA DD 01H DUP (?)		; AGKCommand347
?AGKCommand348@@3P6AXIM@ZA DD 01H DUP (?)		; AGKCommand348
?AGKCommand349@@3P6AXIMMMM@ZA DD 01H DUP (?)		; AGKCommand349
?AGKCommand350@@3P6AXIMM@ZA DD 01H DUP (?)		; AGKCommand350
?AGKCommand351@@3P6AXIMM@ZA DD 01H DUP (?)		; AGKCommand351
?AGKCommand352@@3P6AXIM@ZA DD 01H DUP (?)		; AGKCommand352
?AGKCommand353@@3P6AXIM@ZA DD 01H DUP (?)		; AGKCommand353
?AGKCommand354@@3P6AXIMM@ZA DD 01H DUP (?)		; AGKCommand354
?AGKCommand355@@3P6AXIMM@ZA DD 01H DUP (?)		; AGKCommand355
?AGKCommand356@@3P6AXIH@ZA DD 01H DUP (?)		; AGKCommand356
?AGKCommand357@@3P6AXIM@ZA DD 01H DUP (?)		; AGKCommand357
?AGKCommand358@@3P6AXIM@ZA DD 01H DUP (?)		; AGKCommand358
?AGKCommand359@@3P6AXIH@ZA DD 01H DUP (?)		; AGKCommand359
?AGKCommand360@@3P6AXI@ZA DD 01H DUP (?)		; AGKCommand360
?AGKCommand361@@3P6AXII@ZA DD 01H DUP (?)		; AGKCommand361
?AGKCommand362@@3P6AXIH@ZA DD 01H DUP (?)		; AGKCommand362
?AGKCommand363@@3P6AXIH@ZA DD 01H DUP (?)		; AGKCommand363
?AGKCommand364@@3P6AXIH@ZA DD 01H DUP (?)		; AGKCommand364
?AGKCommand365@@3P6AXIH@ZA DD 01H DUP (?)		; AGKCommand365
?AGKCommand366@@3P6AMI@ZA DD 01H DUP (?)		; AGKCommand366
?AGKCommand367@@3P6AMI@ZA DD 01H DUP (?)		; AGKCommand367
?AGKCommand368@@3P6AHI@ZA DD 01H DUP (?)		; AGKCommand368
?AGKCommand369@@3P6AHI@ZA DD 01H DUP (?)		; AGKCommand369
?AGKCommand370@@3P6AHI@ZA DD 01H DUP (?)		; AGKCommand370
?AGKCommand371@@3P6AMI@ZA DD 01H DUP (?)		; AGKCommand371
?AGKCommand372@@3P6AMI@ZA DD 01H DUP (?)		; AGKCommand372
?AGKCommand373@@3P6AMI@ZA DD 01H DUP (?)		; AGKCommand373
?AGKCommand374@@3P6AMI@ZA DD 01H DUP (?)		; AGKCommand374
?AGKCommand375@@3P6AMI@ZA DD 01H DUP (?)		; AGKCommand375
?AGKCommand376@@3P6AMI@ZA DD 01H DUP (?)		; AGKCommand376
?AGKCommand377@@3P6AMI@ZA DD 01H DUP (?)		; AGKCommand377
?AGKCommand378@@3P6AHI@ZA DD 01H DUP (?)		; AGKCommand378
?AGKCommand379@@3P6AXIMMMM@ZA DD 01H DUP (?)		; AGKCommand379
?AGKCommand380@@3P6AXI@ZA DD 01H DUP (?)		; AGKCommand380
?AGKCommand381@@3P6AXIMIIII@ZA DD 01H DUP (?)		; AGKCommand381
?AGKCommand382@@3P6AXI@ZA DD 01H DUP (?)		; AGKCommand382
?AGKCommand383@@3P6AXIMM@ZA DD 01H DUP (?)		; AGKCommand383
?AGKCommand384@@3P6AXI@ZA DD 01H DUP (?)		; AGKCommand384
?AGKCommand385@@3P6AXIH@ZA DD 01H DUP (?)		; AGKCommand385
?AGKCommand386@@3P6AXIM@ZA DD 01H DUP (?)		; AGKCommand386
?AGKCommand387@@3P6AXIMM@ZA DD 01H DUP (?)		; AGKCommand387
?AGKCommand388@@3P6AXIPBD@ZA DD 01H DUP (?)		; AGKCommand388
?AGKCommand389@@3P6AIPBD@ZA DD 01H DUP (?)		; AGKCommand389
?AGKCommand390@@3P6AII@ZA DD 01H DUP (?)		; AGKCommand390
?AGKCommand391@@3P6AXI@ZA DD 01H DUP (?)		; AGKCommand391
?AGKCommand392@@3P6AXXZA DD 01H DUP (?)			; AGKCommand392
?AGKCommand393@@3P6AXIPBD@ZA DD 01H DUP (?)		; AGKCommand393
?AGKCommand394@@3P6AXIMM@ZA DD 01H DUP (?)		; AGKCommand394
?AGKCommand395@@3P6AXIM@ZA DD 01H DUP (?)		; AGKCommand395
?AGKCommand396@@3P6AXIM@ZA DD 01H DUP (?)		; AGKCommand396
?AGKCommand397@@3P6AXIM@ZA DD 01H DUP (?)		; AGKCommand397
?AGKCommand398@@3P6AXIM@ZA DD 01H DUP (?)		; AGKCommand398
?AGKCommand399@@3P6AXIH@ZA DD 01H DUP (?)		; AGKCommand399
?AGKCommand400@@3P6AXIM@ZA DD 01H DUP (?)		; AGKCommand400
?AGKCommand401@@3P6AXIM@ZA DD 01H DUP (?)		; AGKCommand401
?AGKCommand402@@3P6AXIM@ZA DD 01H DUP (?)		; AGKCommand402
?AGKCommand403@@3P6AXIH@ZA DD 01H DUP (?)		; AGKCommand403
?AGKCommand404@@3P6AXIH@ZA DD 01H DUP (?)		; AGKCommand404
?AGKCommand405@@3P6AXIIIII@ZA DD 01H DUP (?)		; AGKCommand405
?AGKCommand406@@3P6AXII@ZA DD 01H DUP (?)		; AGKCommand406
?AGKCommand407@@3P6AXII@ZA DD 01H DUP (?)		; AGKCommand407
?AGKCommand408@@3P6AXII@ZA DD 01H DUP (?)		; AGKCommand408
?AGKCommand409@@3P6AXII@ZA DD 01H DUP (?)		; AGKCommand409
?AGKCommand410@@3P6AII@ZA DD 01H DUP (?)		; AGKCommand410
?AGKCommand411@@3P6AII@ZA DD 01H DUP (?)		; AGKCommand411
?AGKCommand412@@3P6AII@ZA DD 01H DUP (?)		; AGKCommand412
?AGKCommand413@@3P6AII@ZA DD 01H DUP (?)		; AGKCommand413
?AGKCommand414@@3P6AXIIMM@ZA DD 01H DUP (?)		; AGKCommand414
?AGKCommand415@@3P6AXIIM@ZA DD 01H DUP (?)		; AGKCommand415
?AGKCommand416@@3P6AXIIM@ZA DD 01H DUP (?)		; AGKCommand416
?AGKCommand417@@3P6AXIIM@ZA DD 01H DUP (?)		; AGKCommand417
?AGKCommand418@@3P6AXIIM@ZA DD 01H DUP (?)		; AGKCommand418
?AGKCommand419@@3P6AXIIIIII@ZA DD 01H DUP (?)		; AGKCommand419
?AGKCommand420@@3P6AXIII@ZA DD 01H DUP (?)		; AGKCommand420
?AGKCommand421@@3P6AXIII@ZA DD 01H DUP (?)		; AGKCommand421
?AGKCommand422@@3P6AXIII@ZA DD 01H DUP (?)		; AGKCommand422
?AGKCommand423@@3P6AXIII@ZA DD 01H DUP (?)		; AGKCommand423
?AGKCommand424@@3P6AXIII@ZA DD 01H DUP (?)		; AGKCommand424
?AGKCommand425@@3P6AMII@ZA DD 01H DUP (?)		; AGKCommand425
?AGKCommand426@@3P6AMII@ZA DD 01H DUP (?)		; AGKCommand426
?AGKCommand427@@3P6AMII@ZA DD 01H DUP (?)		; AGKCommand427
?AGKCommand428@@3P6AMII@ZA DD 01H DUP (?)		; AGKCommand428
?AGKCommand429@@3P6AIII@ZA DD 01H DUP (?)		; AGKCommand429
?AGKCommand430@@3P6AIII@ZA DD 01H DUP (?)		; AGKCommand430
?AGKCommand431@@3P6AIII@ZA DD 01H DUP (?)		; AGKCommand431
?AGKCommand432@@3P6AIII@ZA DD 01H DUP (?)		; AGKCommand432
?AGKCommand433@@3P6AMI@ZA DD 01H DUP (?)		; AGKCommand433
?AGKCommand434@@3P6AMI@ZA DD 01H DUP (?)		; AGKCommand434
?AGKCommand435@@3P6AII@ZA DD 01H DUP (?)		; AGKCommand435
?AGKCommand436@@3P6AMI@ZA DD 01H DUP (?)		; AGKCommand436
?AGKCommand437@@3P6AMI@ZA DD 01H DUP (?)		; AGKCommand437
?AGKCommand438@@3P6AHIMM@ZA DD 01H DUP (?)		; AGKCommand438
?AGKCommand439@@3P6AXII@ZA DD 01H DUP (?)		; AGKCommand439
?AGKCommand440@@3P6AXII@ZA DD 01H DUP (?)		; AGKCommand440
?AGKCommand441@@3P6AXII@ZA DD 01H DUP (?)		; AGKCommand441
?AGKCommand442@@3P6AXI@ZA DD 01H DUP (?)		; AGKCommand442
?AGKCommand443@@3P6AXI@ZA DD 01H DUP (?)		; AGKCommand443
?AGKCommand444@@3P6AXI@ZA DD 01H DUP (?)		; AGKCommand444
?AGKCommand445@@3P6AXI@ZA DD 01H DUP (?)		; AGKCommand445
?AGKCommand446@@3P6AXIH@ZA DD 01H DUP (?)		; AGKCommand446
?AGKCommand447@@3P6AXIM@ZA DD 01H DUP (?)		; AGKCommand447
?AGKCommand448@@3P6AXIMMMM@ZA DD 01H DUP (?)		; AGKCommand448
?AGKCommand449@@3P6AXIH@ZA DD 01H DUP (?)		; AGKCommand449
?AGKCommand450@@3P6AXII@ZA DD 01H DUP (?)		; AGKCommand450
?AGKCommand451@@3P6AHI@ZA DD 01H DUP (?)		; AGKCommand451
?AGKCommand452@@3P6AHI@ZA DD 01H DUP (?)		; AGKCommand452
?AGKCommand453@@3P6AMI@ZA DD 01H DUP (?)		; AGKCommand453
?AGKCommand454@@3P6AMI@ZA DD 01H DUP (?)		; AGKCommand454
?AGKCommand455@@3P6AMI@ZA DD 01H DUP (?)		; AGKCommand455
?AGKCommand456@@3P6APADI@ZA DD 01H DUP (?)		; AGKCommand456
?AGKCommand457@@3P6AIPBD@ZA DD 01H DUP (?)		; AGKCommand457
?AGKCommand458@@3P6AXIPBD@ZA DD 01H DUP (?)		; AGKCommand458
?AGKCommand459@@3P6AHI@ZA DD 01H DUP (?)		; AGKCommand459
?AGKCommand460@@3P6AHPBD@ZA DD 01H DUP (?)		; AGKCommand460
?AGKCommand461@@3P6AXI@ZA DD 01H DUP (?)		; AGKCommand461
?AGKCommand462@@3P6AXPBD@ZA DD 01H DUP (?)		; AGKCommand462
?AGKCommand463@@3P6AXH@ZA DD 01H DUP (?)		; AGKCommand463
?AGKCommand464@@3P6AXM@ZA DD 01H DUP (?)		; AGKCommand464
?AGKCommand465@@3P6AXPBD@ZA DD 01H DUP (?)		; AGKCommand465
?AGKCommand466@@3P6AXH@ZA DD 01H DUP (?)		; AGKCommand466
?AGKCommand467@@3P6AXM@ZA DD 01H DUP (?)		; AGKCommand467
?AGKCommand468@@3P6AXM@ZA DD 01H DUP (?)		; AGKCommand468
?AGKCommand469@@3P6AXM@ZA DD 01H DUP (?)		; AGKCommand469
?AGKCommand470@@3P6AXIII@ZA DD 01H DUP (?)		; AGKCommand470
?AGKCommand471@@3P6AXIIII@ZA DD 01H DUP (?)		; AGKCommand471
?AGKCommand472@@3P6AXH@ZA DD 01H DUP (?)		; AGKCommand472
?AGKCommand473@@3P6AXI@ZA DD 01H DUP (?)		; AGKCommand473
?AGKCommand474@@3P6AIXZA DD 01H DUP (?)			; AGKCommand474
?AGKCommand475@@3P6AHI@ZA DD 01H DUP (?)		; AGKCommand475
?AGKCommand476@@3P6AXI@ZA DD 01H DUP (?)		; AGKCommand476
?AGKCommand477@@3P6AXIPBDMIH@ZA DD 01H DUP (?)		; AGKCommand477
?AGKCommand478@@3P6AIPBDMIH@ZA DD 01H DUP (?)		; AGKCommand478
?AGKCommand479@@3P6AXIPBDMI@ZA DD 01H DUP (?)		; AGKCommand479
?AGKCommand480@@3P6AIPBDMI@ZA DD 01H DUP (?)		; AGKCommand480
?AGKCommand481@@3P6AXIMM@ZA DD 01H DUP (?)		; AGKCommand481
?AGKCommand482@@3P6AXIM@ZA DD 01H DUP (?)		; AGKCommand482
?AGKCommand483@@3P6AXIHH@ZA DD 01H DUP (?)		; AGKCommand483
?AGKCommand484@@3P6AXII@ZA DD 01H DUP (?)		; AGKCommand484
?AGKCommand485@@3P6AXIH@ZA DD 01H DUP (?)		; AGKCommand485
?AGKCommand486@@3P6AXIH@ZA DD 01H DUP (?)		; AGKCommand486
?AGKCommand487@@3P6AMI@ZA DD 01H DUP (?)		; AGKCommand487
?AGKCommand488@@3P6AMI@ZA DD 01H DUP (?)		; AGKCommand488
?AGKCommand489@@3P6AMI@ZA DD 01H DUP (?)		; AGKCommand489
?AGKCommand490@@3P6AHIPBD@ZA DD 01H DUP (?)		; AGKCommand490
?AGKCommand491@@3P6AHIH@ZA DD 01H DUP (?)		; AGKCommand491
?AGKCommand492@@3P6AMIH@ZA DD 01H DUP (?)		; AGKCommand492
?AGKCommand493@@3P6AMIH@ZA DD 01H DUP (?)		; AGKCommand493
?AGKCommand494@@3P6AMIH@ZA DD 01H DUP (?)		; AGKCommand494
?AGKCommand495@@3P6AMIH@ZA DD 01H DUP (?)		; AGKCommand495
?AGKCommand496@@3P6AMIH@ZA DD 01H DUP (?)		; AGKCommand496
?AGKCommand497@@3P6AMIH@ZA DD 01H DUP (?)		; AGKCommand497
?AGKCommand498@@3P6AXIHMM@ZA DD 01H DUP (?)		; AGKCommand498
?AGKCommand499@@3P6AXIHM@ZA DD 01H DUP (?)		; AGKCommand499
?AGKCommand500@@3P6AXIHMM@ZA DD 01H DUP (?)		; AGKCommand500
?AGKCommand501@@3P6AXIHH@ZA DD 01H DUP (?)		; AGKCommand501
?AGKCommand502@@3P6AXIPBDMHM@ZA DD 01H DUP (?)		; AGKCommand502
?AGKCommand503@@3P6AXIPBDMM@ZA DD 01H DUP (?)		; AGKCommand503
?AGKCommand504@@3P6AXIM@ZA DD 01H DUP (?)		; AGKCommand504
?AGKCommand505@@3P6AMI@ZA DD 01H DUP (?)		; AGKCommand505
?AGKCommand506@@3P6AXI@ZA DD 01H DUP (?)		; AGKCommand506
?AGKCommand507@@3P6AHI@ZA DD 01H DUP (?)		; AGKCommand507
?AGKCommand508@@3P6AHI@ZA DD 01H DUP (?)		; AGKCommand508
?AGKCommand509@@3P6AMIPBD@ZA DD 01H DUP (?)		; AGKCommand509
?AGKCommand510@@3P6AHXZA DD 01H DUP (?)			; AGKCommand510
?AGKCommand511@@3P6AHXZA DD 01H DUP (?)			; AGKCommand511
?AGKCommand512@@3P6AHXZA DD 01H DUP (?)			; AGKCommand512
?AGKCommand513@@3P6AHXZA DD 01H DUP (?)			; AGKCommand513
?AGKCommand514@@3P6AHXZA DD 01H DUP (?)			; AGKCommand514
?AGKCommand515@@3P6AHXZA DD 01H DUP (?)			; AGKCommand515
?AGKCommand516@@3P6AHXZA DD 01H DUP (?)			; AGKCommand516
?AGKCommand517@@3P6AHXZA DD 01H DUP (?)			; AGKCommand517
?AGKCommand518@@3P6AHXZA DD 01H DUP (?)			; AGKCommand518
?AGKCommand519@@3P6AXI@ZA DD 01H DUP (?)		; AGKCommand519
?AGKCommand520@@3P6AHI@ZA DD 01H DUP (?)		; AGKCommand520
?AGKCommand521@@3P6AXIM@ZA DD 01H DUP (?)		; AGKCommand521
?AGKCommand522@@3P6AXIM@ZA DD 01H DUP (?)		; AGKCommand522
?AGKCommand523@@3P6AIM@ZA DD 01H DUP (?)		; AGKCommand523
?AGKCommand524@@3P6AHI@ZA DD 01H DUP (?)		; AGKCommand524
?AGKCommand525@@3P6AXIMMH@ZA DD 01H DUP (?)		; AGKCommand525
?AGKCommand526@@3P6AXIMMH@ZA DD 01H DUP (?)		; AGKCommand526
?AGKCommand527@@3P6AXIMMH@ZA DD 01H DUP (?)		; AGKCommand527
?AGKCommand528@@3P6AXIMMH@ZA DD 01H DUP (?)		; AGKCommand528
?AGKCommand529@@3P6AXIHHH@ZA DD 01H DUP (?)		; AGKCommand529
?AGKCommand530@@3P6AXIHHH@ZA DD 01H DUP (?)		; AGKCommand530
?AGKCommand531@@3P6AXIHHH@ZA DD 01H DUP (?)		; AGKCommand531
?AGKCommand532@@3P6AXIHHH@ZA DD 01H DUP (?)		; AGKCommand532
?AGKCommand533@@3P6AMI@ZA DD 01H DUP (?)		; AGKCommand533
?AGKCommand534@@3P6AMI@ZA DD 01H DUP (?)		; AGKCommand534
?AGKCommand535@@3P6AMI@ZA DD 01H DUP (?)		; AGKCommand535
?AGKCommand536@@3P6AMI@ZA DD 01H DUP (?)		; AGKCommand536
?AGKCommand537@@3P6AHI@ZA DD 01H DUP (?)		; AGKCommand537
?AGKCommand538@@3P6AHI@ZA DD 01H DUP (?)		; AGKCommand538
?AGKCommand539@@3P6AHI@ZA DD 01H DUP (?)		; AGKCommand539
?AGKCommand540@@3P6AHI@ZA DD 01H DUP (?)		; AGKCommand540
?AGKCommand541@@3P6AXIM@ZA DD 01H DUP (?)		; AGKCommand541
?AGKCommand542@@3P6AXI@ZA DD 01H DUP (?)		; AGKCommand542
?AGKCommand543@@3P6AHI@ZA DD 01H DUP (?)		; AGKCommand543
?AGKCommand544@@3P6AXIM@ZA DD 01H DUP (?)		; AGKCommand544
?AGKCommand545@@3P6AIM@ZA DD 01H DUP (?)		; AGKCommand545
?AGKCommand546@@3P6AHI@ZA DD 01H DUP (?)		; AGKCommand546
?AGKCommand547@@3P6AXIMMH@ZA DD 01H DUP (?)		; AGKCommand547
?AGKCommand548@@3P6AXIMMH@ZA DD 01H DUP (?)		; AGKCommand548
?AGKCommand549@@3P6AXIMMH@ZA DD 01H DUP (?)		; AGKCommand549
?AGKCommand550@@3P6AXIMMH@ZA DD 01H DUP (?)		; AGKCommand550
?AGKCommand551@@3P6AXIMMH@ZA DD 01H DUP (?)		; AGKCommand551
?AGKCommand552@@3P6AXIMMH@ZA DD 01H DUP (?)		; AGKCommand552
?AGKCommand553@@3P6AXIMMH@ZA DD 01H DUP (?)		; AGKCommand553
?AGKCommand554@@3P6AXIHHH@ZA DD 01H DUP (?)		; AGKCommand554
?AGKCommand555@@3P6AXIHHH@ZA DD 01H DUP (?)		; AGKCommand555
?AGKCommand556@@3P6AXIHHH@ZA DD 01H DUP (?)		; AGKCommand556
?AGKCommand557@@3P6AXIHHH@ZA DD 01H DUP (?)		; AGKCommand557
?AGKCommand558@@3P6AXIIM@ZA DD 01H DUP (?)		; AGKCommand558
?AGKCommand559@@3P6AXII@ZA DD 01H DUP (?)		; AGKCommand559
?AGKCommand560@@3P6AHII@ZA DD 01H DUP (?)		; AGKCommand560
?AGKCommand561@@3P6AXIM@ZA DD 01H DUP (?)		; AGKCommand561
?AGKCommand562@@3P6AIM@ZA DD 01H DUP (?)		; AGKCommand562
?AGKCommand563@@3P6AHI@ZA DD 01H DUP (?)		; AGKCommand563
?AGKCommand564@@3P6AXIMMH@ZA DD 01H DUP (?)		; AGKCommand564
?AGKCommand565@@3P6AXIMMH@ZA DD 01H DUP (?)		; AGKCommand565
?AGKCommand566@@3P6AXIMMH@ZA DD 01H DUP (?)		; AGKCommand566
?AGKCommand567@@3P6AXIMMH@ZA DD 01H DUP (?)		; AGKCommand567
?AGKCommand568@@3P6AXIMMH@ZA DD 01H DUP (?)		; AGKCommand568
?AGKCommand569@@3P6AXIMMH@ZA DD 01H DUP (?)		; AGKCommand569
?AGKCommand570@@3P6AXIHHH@ZA DD 01H DUP (?)		; AGKCommand570
?AGKCommand571@@3P6AXIHHH@ZA DD 01H DUP (?)		; AGKCommand571
?AGKCommand572@@3P6AXIHHH@ZA DD 01H DUP (?)		; AGKCommand572
?AGKCommand573@@3P6AXIHHH@ZA DD 01H DUP (?)		; AGKCommand573
?AGKCommand574@@3P6AXIIM@ZA DD 01H DUP (?)		; AGKCommand574
?AGKCommand575@@3P6AXII@ZA DD 01H DUP (?)		; AGKCommand575
?AGKCommand576@@3P6AHII@ZA DD 01H DUP (?)		; AGKCommand576
?AGKCommand577@@3P6AXIM@ZA DD 01H DUP (?)		; AGKCommand577
?AGKCommand578@@3P6AIM@ZA DD 01H DUP (?)		; AGKCommand578
?AGKCommand579@@3P6AHI@ZA DD 01H DUP (?)		; AGKCommand579
?AGKCommand580@@3P6AXIMMH@ZA DD 01H DUP (?)		; AGKCommand580
?AGKCommand581@@3P6AXIMMH@ZA DD 01H DUP (?)		; AGKCommand581
?AGKCommand582@@3P6AXIMMH@ZA DD 01H DUP (?)		; AGKCommand582
?AGKCommand583@@3P6AXIHHH@ZA DD 01H DUP (?)		; AGKCommand583
?AGKCommand584@@3P6AXIHHH@ZA DD 01H DUP (?)		; AGKCommand584
?AGKCommand585@@3P6AXIHHH@ZA DD 01H DUP (?)		; AGKCommand585
?AGKCommand586@@3P6AXIHHH@ZA DD 01H DUP (?)		; AGKCommand586
?AGKCommand587@@3P6AXIIIM@ZA DD 01H DUP (?)		; AGKCommand587
?AGKCommand588@@3P6AXIII@ZA DD 01H DUP (?)		; AGKCommand588
?AGKCommand589@@3P6AHIII@ZA DD 01H DUP (?)		; AGKCommand589
?AGKCommand590@@3P6AXIM@ZA DD 01H DUP (?)		; AGKCommand590
?AGKCommand591@@3P6AIM@ZA DD 01H DUP (?)		; AGKCommand591
?AGKCommand592@@3P6AHI@ZA DD 01H DUP (?)		; AGKCommand592
?AGKCommand593@@3P6AXIMMH@ZA DD 01H DUP (?)		; AGKCommand593
?AGKCommand594@@3P6AXIMMH@ZA DD 01H DUP (?)		; AGKCommand594
?AGKCommand595@@3P6AXIMMH@ZA DD 01H DUP (?)		; AGKCommand595
?AGKCommand596@@3P6AXIMMH@ZA DD 01H DUP (?)		; AGKCommand596
?AGKCommand597@@3P6AXIMMH@ZA DD 01H DUP (?)		; AGKCommand597
?AGKCommand598@@3P6AXIMMH@ZA DD 01H DUP (?)		; AGKCommand598
?AGKCommand599@@3P6AXIMMH@ZA DD 01H DUP (?)		; AGKCommand599
?AGKCommand600@@3P6AXIMMH@ZA DD 01H DUP (?)		; AGKCommand600
?AGKCommand601@@3P6AXIMMH@ZA DD 01H DUP (?)		; AGKCommand601
?AGKCommand602@@3P6AXIHHH@ZA DD 01H DUP (?)		; AGKCommand602
?AGKCommand603@@3P6AXIHHH@ZA DD 01H DUP (?)		; AGKCommand603
?AGKCommand604@@3P6AXIHHH@ZA DD 01H DUP (?)		; AGKCommand604
?AGKCommand605@@3P6AXIHHH@ZA DD 01H DUP (?)		; AGKCommand605
?AGKCommand606@@3P6AXIIM@ZA DD 01H DUP (?)		; AGKCommand606
?AGKCommand607@@3P6AXII@ZA DD 01H DUP (?)		; AGKCommand607
?AGKCommand608@@3P6AHII@ZA DD 01H DUP (?)		; AGKCommand608
?AGKCommand609@@3P6AXIM@ZA DD 01H DUP (?)		; AGKCommand609
?AGKCommand610@@3P6AIM@ZA DD 01H DUP (?)		; AGKCommand610
?AGKCommand611@@3P6AHI@ZA DD 01H DUP (?)		; AGKCommand611
?AGKCommand612@@3P6AXIMMH@ZA DD 01H DUP (?)		; AGKCommand612
?AGKCommand613@@3P6AXIMMH@ZA DD 01H DUP (?)		; AGKCommand613
?AGKCommand614@@3P6AXIMMH@ZA DD 01H DUP (?)		; AGKCommand614
?AGKCommand615@@3P6AXIMMH@ZA DD 01H DUP (?)		; AGKCommand615
?AGKCommand616@@3P6AXIMMH@ZA DD 01H DUP (?)		; AGKCommand616
?AGKCommand617@@3P6AXIMMH@ZA DD 01H DUP (?)		; AGKCommand617
?AGKCommand618@@3P6AXIMMH@ZA DD 01H DUP (?)		; AGKCommand618
?AGKCommand619@@3P6AXIIM@ZA DD 01H DUP (?)		; AGKCommand619
?AGKCommand620@@3P6AXII@ZA DD 01H DUP (?)		; AGKCommand620
?AGKCommand621@@3P6AHII@ZA DD 01H DUP (?)		; AGKCommand621
?AGKCommand622@@3P6AXI@ZA DD 01H DUP (?)		; AGKCommand622
?AGKCommand623@@3P6AIXZA DD 01H DUP (?)			; AGKCommand623
?AGKCommand624@@3P6AXI@ZA DD 01H DUP (?)		; AGKCommand624
?AGKCommand625@@3P6AXI@ZA DD 01H DUP (?)		; AGKCommand625
?AGKCommand626@@3P6AXIIM@ZA DD 01H DUP (?)		; AGKCommand626
?AGKCommand627@@3P6AXIIIM@ZA DD 01H DUP (?)		; AGKCommand627
?AGKCommand628@@3P6AXIIIM@ZA DD 01H DUP (?)		; AGKCommand628
?AGKCommand629@@3P6AXIIIIM@ZA DD 01H DUP (?)		; AGKCommand629
?AGKCommand630@@3P6AXIIIM@ZA DD 01H DUP (?)		; AGKCommand630
?AGKCommand631@@3P6AXIIIM@ZA DD 01H DUP (?)		; AGKCommand631
?AGKCommand632@@3P6AXI@ZA DD 01H DUP (?)		; AGKCommand632
?AGKCommand633@@3P6AXI@ZA DD 01H DUP (?)		; AGKCommand633
?AGKCommand634@@3P6AXI@ZA DD 01H DUP (?)		; AGKCommand634
?AGKCommand635@@3P6AHI@ZA DD 01H DUP (?)		; AGKCommand635
?AGKCommand636@@3P6AXIM@ZA DD 01H DUP (?)		; AGKCommand636
?AGKCommand637@@3P6AMI@ZA DD 01H DUP (?)		; AGKCommand637
?AGKCommand638@@3P6AXM@ZA DD 01H DUP (?)		; AGKCommand638
?AGKCommand639@@3P6AXIM@ZA DD 01H DUP (?)		; AGKCommand639
?AGKCommand640@@3P6AXIIM@ZA DD 01H DUP (?)		; AGKCommand640
?AGKCommand641@@3P6AXIIM@ZA DD 01H DUP (?)		; AGKCommand641
?AGKCommand642@@3P6AXIIIM@ZA DD 01H DUP (?)		; AGKCommand642
?AGKCommand643@@3P6AXIIM@ZA DD 01H DUP (?)		; AGKCommand643
?AGKCommand644@@3P6AXIIM@ZA DD 01H DUP (?)		; AGKCommand644
?AGKCommand645@@3P6AXIM@ZA DD 01H DUP (?)		; AGKCommand645
?AGKCommand646@@3P6AIH@ZA DD 01H DUP (?)		; AGKCommand646
?AGKCommand647@@3P6AIH@ZA DD 01H DUP (?)		; AGKCommand647
?AGKCommand648@@3P6AIXZA DD 01H DUP (?)			; AGKCommand648
?AGKCommand649@@3P6AHI@ZA DD 01H DUP (?)		; AGKCommand649
?AGKCommand650@@3P6AMI@ZA DD 01H DUP (?)		; AGKCommand650
?AGKCommand651@@3P6AMI@ZA DD 01H DUP (?)		; AGKCommand651
?AGKCommand652@@3P6AMI@ZA DD 01H DUP (?)		; AGKCommand652
?AGKCommand653@@3P6AMI@ZA DD 01H DUP (?)		; AGKCommand653
?AGKCommand654@@3P6AMI@ZA DD 01H DUP (?)		; AGKCommand654
?AGKCommand655@@3P6AMI@ZA DD 01H DUP (?)		; AGKCommand655
?AGKCommand656@@3P6AHI@ZA DD 01H DUP (?)		; AGKCommand656
?AGKCommand657@@3P6AXIH@ZA DD 01H DUP (?)		; AGKCommand657
?AGKCommand658@@3P6AHI@ZA DD 01H DUP (?)		; AGKCommand658
?AGKCommand659@@3P6AMI@ZA DD 01H DUP (?)		; AGKCommand659
?AGKCommand660@@3P6AXIPBD@ZA DD 01H DUP (?)		; AGKCommand660
?AGKCommand661@@3P6AIPBD@ZA DD 01H DUP (?)		; AGKCommand661
?AGKCommand662@@3P6AXIPBD@ZA DD 01H DUP (?)		; AGKCommand662
?AGKCommand663@@3P6AIPBD@ZA DD 01H DUP (?)		; AGKCommand663
?AGKCommand664@@3P6AXIPBD@ZA DD 01H DUP (?)		; AGKCommand664
?AGKCommand665@@3P6AII@ZA DD 01H DUP (?)		; AGKCommand665
?AGKCommand666@@3P6AIIH@ZA DD 01H DUP (?)		; AGKCommand666
?AGKCommand667@@3P6AIIHH@ZA DD 01H DUP (?)		; AGKCommand667
?AGKCommand668@@3P6AIIHHH@ZA DD 01H DUP (?)		; AGKCommand668
?AGKCommand669@@3P6AXI@ZA DD 01H DUP (?)		; AGKCommand669
?AGKCommand670@@3P6AXI@ZA DD 01H DUP (?)		; AGKCommand670
?AGKCommand671@@3P6AII@ZA DD 01H DUP (?)		; AGKCommand671
?AGKCommand672@@3P6AII@ZA DD 01H DUP (?)		; AGKCommand672
?AGKCommand673@@3P6AII@ZA DD 01H DUP (?)		; AGKCommand673
?AGKCommand674@@3P6AXH@ZA DD 01H DUP (?)		; AGKCommand674
?AGKCommand675@@3P6AMXZA DD 01H DUP (?)			; AGKCommand675
?AGKCommand676@@3P6AMXZA DD 01H DUP (?)			; AGKCommand676
?AGKCommand677@@3P6AHI@ZA DD 01H DUP (?)		; AGKCommand677
?AGKCommand678@@3P6AHI@ZA DD 01H DUP (?)		; AGKCommand678
?AGKCommand679@@3P6AMI@ZA DD 01H DUP (?)		; AGKCommand679
?AGKCommand680@@3P6AXIH@ZA DD 01H DUP (?)		; AGKCommand680
?AGKCommand681@@3P6AXIM@ZA DD 01H DUP (?)		; AGKCommand681
?AGKCommand682@@3P6AXIM@ZA DD 01H DUP (?)		; AGKCommand682
?AGKCommand683@@3P6AHI@ZA DD 01H DUP (?)		; AGKCommand683
?AGKCommand684@@3P6AXI@ZA DD 01H DUP (?)		; AGKCommand684
?AGKCommand685@@3P6AIPBD@ZA DD 01H DUP (?)		; AGKCommand685
?AGKCommand686@@3P6AXIPBD@ZA DD 01H DUP (?)		; AGKCommand686
?AGKCommand687@@3P6AXIH@ZA DD 01H DUP (?)		; AGKCommand687
?AGKCommand688@@3P6AXXZA DD 01H DUP (?)			; AGKCommand688
?AGKCommand689@@3P6AXI@ZA DD 01H DUP (?)		; AGKCommand689
?AGKCommand690@@3P6AXIH@ZA DD 01H DUP (?)		; AGKCommand690
?AGKCommand691@@3P6AXIHII@ZA DD 01H DUP (?)		; AGKCommand691
?AGKCommand692@@3P6AXXZA DD 01H DUP (?)			; AGKCommand692
?AGKCommand693@@3P6AXXZA DD 01H DUP (?)			; AGKCommand693
?AGKCommand694@@3P6AXXZA DD 01H DUP (?)			; AGKCommand694
?AGKCommand695@@3P6AXI@ZA DD 01H DUP (?)		; AGKCommand695
?AGKCommand696@@3P6AHXZA DD 01H DUP (?)			; AGKCommand696
?AGKCommand697@@3P6AXH@ZA DD 01H DUP (?)		; AGKCommand697
?AGKCommand698@@3P6AII@ZA DD 01H DUP (?)		; AGKCommand698
?AGKCommand699@@3P6AMI@ZA DD 01H DUP (?)		; AGKCommand699
?AGKCommand700@@3P6AMXZA DD 01H DUP (?)			; AGKCommand700
?AGKCommand701@@3P6AXMH@ZA DD 01H DUP (?)		; AGKCommand701
?AGKCommand702@@3P6AIPBD@ZA DD 01H DUP (?)		; AGKCommand702
?AGKCommand703@@3P6AXIPBD@ZA DD 01H DUP (?)		; AGKCommand703
?AGKCommand704@@3P6AHI@ZA DD 01H DUP (?)		; AGKCommand704
?AGKCommand705@@3P6AXIH@ZA DD 01H DUP (?)		; AGKCommand705
?AGKCommand706@@3P6AXI@ZA DD 01H DUP (?)		; AGKCommand706
?AGKCommand707@@3P6AXIH@ZA DD 01H DUP (?)		; AGKCommand707
?AGKCommand708@@3P6AXI@ZA DD 01H DUP (?)		; AGKCommand708
?AGKCommand709@@3P6AXI@ZA DD 01H DUP (?)		; AGKCommand709
?AGKCommand710@@3P6AXI@ZA DD 01H DUP (?)		; AGKCommand710
?AGKCommand711@@3P6AXI@ZA DD 01H DUP (?)		; AGKCommand711
?AGKCommand712@@3P6AHI@ZA DD 01H DUP (?)		; AGKCommand712
?AGKCommand713@@3P6AHI@ZA DD 01H DUP (?)		; AGKCommand713
?AGKCommand714@@3P6AMI@ZA DD 01H DUP (?)		; AGKCommand714
?AGKCommand715@@3P6AMI@ZA DD 01H DUP (?)		; AGKCommand715
?AGKCommand716@@3P6AXIMH@ZA DD 01H DUP (?)		; AGKCommand716
?AGKCommand717@@3P6AXH@ZA DD 01H DUP (?)		; AGKCommand717
?AGKCommand718@@3P6AXIMM@ZA DD 01H DUP (?)		; AGKCommand718
?AGKCommand719@@3P6AXIH@ZA DD 01H DUP (?)		; AGKCommand719
?AGKCommand720@@3P6AXPBD@ZA DD 01H DUP (?)		; AGKCommand720
?AGKCommand721@@3P6AXXZA DD 01H DUP (?)			; AGKCommand721
?AGKCommand722@@3P6AHXZA DD 01H DUP (?)			; AGKCommand722
?AGKCommand723@@3P6AXPBD@ZA DD 01H DUP (?)		; AGKCommand723
?AGKCommand724@@3P6AHPBD@ZA DD 01H DUP (?)		; AGKCommand724
?AGKCommand725@@3P6APADPBD@ZA DD 01H DUP (?)		; AGKCommand725
?AGKCommand726@@3P6APADPBDH@ZA DD 01H DUP (?)		; AGKCommand726
?AGKCommand727@@3P6APADPBD@ZA DD 01H DUP (?)		; AGKCommand727
?AGKCommand728@@3P6APADPBD0@ZA DD 01H DUP (?)		; AGKCommand728
?AGKCommand729@@3P6AHPBD@ZA DD 01H DUP (?)		; AGKCommand729
?AGKCommand730@@3P6AHXZA DD 01H DUP (?)			; AGKCommand730
?AGKCommand731@@3P6APADH@ZA DD 01H DUP (?)		; AGKCommand731
?AGKCommand732@@3P6AIPBD@ZA DD 01H DUP (?)		; AGKCommand732
?AGKCommand733@@3P6AXI@ZA DD 01H DUP (?)		; AGKCommand733
?AGKCommand734@@3P6AHI@ZA DD 01H DUP (?)		; AGKCommand734
?AGKCommand735@@3P6AHI@ZA DD 01H DUP (?)		; AGKCommand735
?AGKCommand736@@3P6APADIH@ZA DD 01H DUP (?)		; AGKCommand736
?AGKCommand737@@3P6APADIH@ZA DD 01H DUP (?)		; AGKCommand737
?AGKCommand738@@3P6AXIPBDH@ZA DD 01H DUP (?)		; AGKCommand738
?AGKCommand739@@3P6AXIPBD@ZA DD 01H DUP (?)		; AGKCommand739
?AGKCommand740@@3P6AIPBDH@ZA DD 01H DUP (?)		; AGKCommand740
?AGKCommand741@@3P6AIPBD@ZA DD 01H DUP (?)		; AGKCommand741
?AGKCommand742@@3P6AIPBD@ZA DD 01H DUP (?)		; AGKCommand742
?AGKCommand743@@3P6AXIPBD@ZA DD 01H DUP (?)		; AGKCommand743
?AGKCommand744@@3P6AHI@ZA DD 01H DUP (?)		; AGKCommand744
?AGKCommand745@@3P6AXI@ZA DD 01H DUP (?)		; AGKCommand745
?AGKCommand746@@3P6AHI@ZA DD 01H DUP (?)		; AGKCommand746
?AGKCommand747@@3P6AHI@ZA DD 01H DUP (?)		; AGKCommand747
?AGKCommand748@@3P6AHI@ZA DD 01H DUP (?)		; AGKCommand748
?AGKCommand749@@3P6AXIH@ZA DD 01H DUP (?)		; AGKCommand749
?AGKCommand750@@3P6AXIH@ZA DD 01H DUP (?)		; AGKCommand750
?AGKCommand751@@3P6AXIH@ZA DD 01H DUP (?)		; AGKCommand751
?AGKCommand752@@3P6AXIM@ZA DD 01H DUP (?)		; AGKCommand752
?AGKCommand753@@3P6AXIPBD@ZA DD 01H DUP (?)		; AGKCommand753
?AGKCommand754@@3P6AXIPBD@ZA DD 01H DUP (?)		; AGKCommand754
?AGKCommand755@@3P6AXIPBD@ZA DD 01H DUP (?)		; AGKCommand755
?AGKCommand756@@3P6AHI@ZA DD 01H DUP (?)		; AGKCommand756
?AGKCommand757@@3P6AHI@ZA DD 01H DUP (?)		; AGKCommand757
?AGKCommand758@@3P6AMI@ZA DD 01H DUP (?)		; AGKCommand758
?AGKCommand759@@3P6APADI@ZA DD 01H DUP (?)		; AGKCommand759
?AGKCommand760@@3P6APADI@ZA DD 01H DUP (?)		; AGKCommand760
?AGKCommand761@@3P6APADI@ZA DD 01H DUP (?)		; AGKCommand761
?AGKCommand762@@3P6APADH@ZA DD 01H DUP (?)		; AGKCommand762
?AGKCommand763@@3P6APADM@ZA DD 01H DUP (?)		; AGKCommand763
?AGKCommand764@@3P6APADMI@ZA DD 01H DUP (?)		; AGKCommand764
?AGKCommand765@@3P6APADH@ZA DD 01H DUP (?)		; AGKCommand765
?AGKCommand766@@3P6APADH@ZA DD 01H DUP (?)		; AGKCommand766
?AGKCommand767@@3P6APADPBD@ZA DD 01H DUP (?)		; AGKCommand767
?AGKCommand768@@3P6APADPBD@ZA DD 01H DUP (?)		; AGKCommand768
?AGKCommand769@@3P6AHPBD@ZA DD 01H DUP (?)		; AGKCommand769
?AGKCommand770@@3P6AHPBDH@ZA DD 01H DUP (?)		; AGKCommand770
?AGKCommand771@@3P6AMPBD@ZA DD 01H DUP (?)		; AGKCommand771
?AGKCommand772@@3P6APADPBDI@ZA DD 01H DUP (?)		; AGKCommand772
?AGKCommand773@@3P6APADPBDI@ZA DD 01H DUP (?)		; AGKCommand773
?AGKCommand774@@3P6APADPBDIH@ZA DD 01H DUP (?)		; AGKCommand774
?AGKCommand775@@3P6AIPBD@ZA DD 01H DUP (?)		; AGKCommand775
?AGKCommand776@@3P6AIPBD@ZA DD 01H DUP (?)		; AGKCommand776
?AGKCommand777@@3P6AIPBD@ZA DD 01H DUP (?)		; AGKCommand777
?AGKCommand778@@3P6APADI@ZA DD 01H DUP (?)		; AGKCommand778
?AGKCommand779@@3P6APADPBD@ZA DD 01H DUP (?)		; AGKCommand779
?AGKCommand780@@3P6APADPBD@ZA DD 01H DUP (?)		; AGKCommand780
?AGKCommand781@@3P6APADI@ZA DD 01H DUP (?)		; AGKCommand781
?AGKCommand782@@3P6AHPBD0@ZA DD 01H DUP (?)		; AGKCommand782
?AGKCommand783@@3P6AHPBD0HH@ZA DD 01H DUP (?)		; AGKCommand783
?AGKCommand784@@3P6AHPBD0@ZA DD 01H DUP (?)		; AGKCommand784
?AGKCommand785@@3P6AHPBD0HH@ZA DD 01H DUP (?)		; AGKCommand785
?AGKCommand786@@3P6AHPBD0@ZA DD 01H DUP (?)		; AGKCommand786
?AGKCommand787@@3P6AHPBD0HH@ZA DD 01H DUP (?)		; AGKCommand787
?AGKCommand788@@3P6AHPBD0@ZA DD 01H DUP (?)		; AGKCommand788
?AGKCommand789@@3P6AHPBD0HH@ZA DD 01H DUP (?)		; AGKCommand789
?AGKCommand790@@3P6APADPBD00H@ZA DD 01H DUP (?)		; AGKCommand790
?AGKCommand791@@3P6APADPBD0@ZA DD 01H DUP (?)		; AGKCommand791
?AGKCommand792@@3P6APADPBD0@ZA DD 01H DUP (?)		; AGKCommand792
?AGKCommand793@@3P6APADPBD0@ZA DD 01H DUP (?)		; AGKCommand793
?AGKCommand794@@3P6AHPBD0@ZA DD 01H DUP (?)		; AGKCommand794
?AGKCommand795@@3P6APADPBD0H@ZA DD 01H DUP (?)		; AGKCommand795
?AGKCommand796@@3P6AHPBD0@ZA DD 01H DUP (?)		; AGKCommand796
?AGKCommand797@@3P6APADPBD0H@ZA DD 01H DUP (?)		; AGKCommand797
?AGKCommand798@@3P6APADXZA DD 01H DUP (?)		; AGKCommand798
?AGKCommand799@@3P6APADXZA DD 01H DUP (?)		; AGKCommand799
?AGKCommand800@@3P6AHPBD@ZA DD 01H DUP (?)		; AGKCommand800
?AGKCommand801@@3P6APADXZA DD 01H DUP (?)		; AGKCommand801
?AGKCommand802@@3P6APADH@ZA DD 01H DUP (?)		; AGKCommand802
?AGKCommand803@@3P6APADXZA DD 01H DUP (?)		; AGKCommand803
?AGKCommand804@@3P6AHXZA DD 01H DUP (?)			; AGKCommand804
?AGKCommand805@@3P6AHH@ZA DD 01H DUP (?)		; AGKCommand805
?AGKCommand806@@3P6APADXZA DD 01H DUP (?)		; AGKCommand806
?AGKCommand807@@3P6APADH@ZA DD 01H DUP (?)		; AGKCommand807
?AGKCommand808@@3P6APADXZA DD 01H DUP (?)		; AGKCommand808
?AGKCommand809@@3P6AHXZA DD 01H DUP (?)			; AGKCommand809
?AGKCommand810@@3P6AHH@ZA DD 01H DUP (?)		; AGKCommand810
?AGKCommand811@@3P6AII@ZA DD 01H DUP (?)		; AGKCommand811
?AGKCommand812@@3P6AIPBDI@ZA DD 01H DUP (?)		; AGKCommand812
?AGKCommand813@@3P6AII@ZA DD 01H DUP (?)		; AGKCommand813
?AGKCommand814@@3P6AXI@ZA DD 01H DUP (?)		; AGKCommand814
?AGKCommand815@@3P6AIPBDHH@ZA DD 01H DUP (?)		; AGKCommand815
?AGKCommand816@@3P6AHIPBDHH@ZA DD 01H DUP (?)		; AGKCommand816
?AGKCommand817@@3P6AHI@ZA DD 01H DUP (?)		; AGKCommand817
?AGKCommand818@@3P6AHI@ZA DD 01H DUP (?)		; AGKCommand818
?AGKCommand819@@3P6AXI@ZA DD 01H DUP (?)		; AGKCommand819
?AGKCommand820@@3P6APADI@ZA DD 01H DUP (?)		; AGKCommand820
?AGKCommand821@@3P6AHI@ZA DD 01H DUP (?)		; AGKCommand821
?AGKCommand822@@3P6AHI@ZA DD 01H DUP (?)		; AGKCommand822
?AGKCommand823@@3P6AHI@ZA DD 01H DUP (?)		; AGKCommand823
?AGKCommand824@@3P6AHI@ZA DD 01H DUP (?)		; AGKCommand824
?AGKCommand825@@3P6AMI@ZA DD 01H DUP (?)		; AGKCommand825
?AGKCommand826@@3P6APADI@ZA DD 01H DUP (?)		; AGKCommand826
?AGKCommand827@@3P6AHIH@ZA DD 01H DUP (?)		; AGKCommand827
?AGKCommand828@@3P6AHIH@ZA DD 01H DUP (?)		; AGKCommand828
?AGKCommand829@@3P6AHIM@ZA DD 01H DUP (?)		; AGKCommand829
?AGKCommand830@@3P6AHIPBD@ZA DD 01H DUP (?)		; AGKCommand830
?AGKCommand831@@3P6AIPBDH@ZA DD 01H DUP (?)		; AGKCommand831
?AGKCommand832@@3P6AHIPBDH@ZA DD 01H DUP (?)		; AGKCommand832
?AGKCommand833@@3P6AII@ZA DD 01H DUP (?)		; AGKCommand833
?AGKCommand834@@3P6AXI@ZA DD 01H DUP (?)		; AGKCommand834
?AGKCommand835@@3P6AIPBD0H@ZA DD 01H DUP (?)		; AGKCommand835
?AGKCommand836@@3P6AIPBD0HH@ZA DD 01H DUP (?)		; AGKCommand836
?AGKCommand837@@3P6AXI@ZA DD 01H DUP (?)		; AGKCommand837
?AGKCommand838@@3P6AIPBD0@ZA DD 01H DUP (?)		; AGKCommand838
?AGKCommand839@@3P6AIPBDI0@ZA DD 01H DUP (?)		; AGKCommand839
?AGKCommand840@@3P6AII@ZA DD 01H DUP (?)		; AGKCommand840
?AGKCommand841@@3P6APADXZA DD 01H DUP (?)		; AGKCommand841
?AGKCommand842@@3P6APADXZA DD 01H DUP (?)		; AGKCommand842
?AGKCommand843@@3P6AXI@ZA DD 01H DUP (?)		; AGKCommand843
?AGKCommand844@@3P6AXII@ZA DD 01H DUP (?)		; AGKCommand844
?AGKCommand845@@3P6AII@ZA DD 01H DUP (?)		; AGKCommand845
?AGKCommand846@@3P6AII@ZA DD 01H DUP (?)		; AGKCommand846
?AGKCommand847@@3P6AII@ZA DD 01H DUP (?)		; AGKCommand847
?AGKCommand848@@3P6AII@ZA DD 01H DUP (?)		; AGKCommand848
?AGKCommand849@@3P6AIII@ZA DD 01H DUP (?)		; AGKCommand849
?AGKCommand850@@3P6AXII@ZA DD 01H DUP (?)		; AGKCommand850
?AGKCommand851@@3P6APADII@ZA DD 01H DUP (?)		; AGKCommand851
?AGKCommand852@@3P6AMII@ZA DD 01H DUP (?)		; AGKCommand852
?AGKCommand853@@3P6AII@ZA DD 01H DUP (?)		; AGKCommand853
?AGKCommand854@@3P6AXIPBDH@ZA DD 01H DUP (?)		; AGKCommand854
?AGKCommand855@@3P6AXIPBDHH@ZA DD 01H DUP (?)		; AGKCommand855
?AGKCommand856@@3P6AXIPBDM@ZA DD 01H DUP (?)		; AGKCommand856
?AGKCommand857@@3P6AXIPBDMH@ZA DD 01H DUP (?)		; AGKCommand857
?AGKCommand858@@3P6AHIIPBD@ZA DD 01H DUP (?)		; AGKCommand858
?AGKCommand859@@3P6AMIIPBD@ZA DD 01H DUP (?)		; AGKCommand859
?AGKCommand860@@3P6AIXZA DD 01H DUP (?)			; AGKCommand860
?AGKCommand861@@3P6AXIH@ZA DD 01H DUP (?)		; AGKCommand861
?AGKCommand862@@3P6AXIM@ZA DD 01H DUP (?)		; AGKCommand862
?AGKCommand863@@3P6AXIPBD@ZA DD 01H DUP (?)		; AGKCommand863
?AGKCommand864@@3P6APADI@ZA DD 01H DUP (?)		; AGKCommand864
?AGKCommand865@@3P6AII@ZA DD 01H DUP (?)		; AGKCommand865
?AGKCommand866@@3P6AHI@ZA DD 01H DUP (?)		; AGKCommand866
?AGKCommand867@@3P6AMI@ZA DD 01H DUP (?)		; AGKCommand867
?AGKCommand868@@3P6APADI@ZA DD 01H DUP (?)		; AGKCommand868
?AGKCommand869@@3P6AXI@ZA DD 01H DUP (?)		; AGKCommand869
?AGKCommand870@@3P6AXIII@ZA DD 01H DUP (?)		; AGKCommand870
?AGKCommand871@@3P6AII@ZA DD 01H DUP (?)		; AGKCommand871
?AGKCommand872@@3P6AXIIIH@ZA DD 01H DUP (?)		; AGKCommand872
?AGKCommand873@@3P6AHIII@ZA DD 01H DUP (?)		; AGKCommand873
?AGKCommand874@@3P6AIXZA DD 01H DUP (?)			; AGKCommand874
?AGKCommand875@@3P6AXI@ZA DD 01H DUP (?)		; AGKCommand875
?AGKCommand876@@3P6AIIPBDH@ZA DD 01H DUP (?)		; AGKCommand876
?AGKCommand877@@3P6AIIPBDH00@ZA DD 01H DUP (?)		; AGKCommand877
?AGKCommand878@@3P6AXI@ZA DD 01H DUP (?)		; AGKCommand878
?AGKCommand879@@3P6AXIH@ZA DD 01H DUP (?)		; AGKCommand879
?AGKCommand880@@3P6AXIH@ZA DD 01H DUP (?)		; AGKCommand880
?AGKCommand881@@3P6APADIPBD@ZA DD 01H DUP (?)		; AGKCommand881
?AGKCommand882@@3P6APADIPBD0@ZA DD 01H DUP (?)		; AGKCommand882
?AGKCommand883@@3P6AHIPBD@ZA DD 01H DUP (?)		; AGKCommand883
?AGKCommand884@@3P6AHIPBD0@ZA DD 01H DUP (?)		; AGKCommand884
?AGKCommand885@@3P6AHIPBD00@ZA DD 01H DUP (?)		; AGKCommand885
?AGKCommand886@@3P6APADI@ZA DD 01H DUP (?)		; AGKCommand886
?AGKCommand887@@3P6AHI@ZA DD 01H DUP (?)		; AGKCommand887
?AGKCommand888@@3P6AHIPBD0@ZA DD 01H DUP (?)		; AGKCommand888
?AGKCommand889@@3P6AHIPBD00@ZA DD 01H DUP (?)		; AGKCommand889
?AGKCommand890@@3P6AHI@ZA DD 01H DUP (?)		; AGKCommand890
?AGKCommand891@@3P6AMI@ZA DD 01H DUP (?)		; AGKCommand891
?AGKCommand892@@3P6AXH@ZA DD 01H DUP (?)		; AGKCommand892
?AGKCommand893@@3P6APADXZA DD 01H DUP (?)		; AGKCommand893
?AGKCommand894@@3P6AHXZA DD 01H DUP (?)			; AGKCommand894
?AGKCommand895@@3P6AXPBD@ZA DD 01H DUP (?)		; AGKCommand895
?AGKCommand896@@3P6AXPBD@ZA DD 01H DUP (?)		; AGKCommand896
?AGKCommand897@@3P6AHXZA DD 01H DUP (?)			; AGKCommand897
?AGKCommand898@@3P6AMXZA DD 01H DUP (?)			; AGKCommand898
?AGKCommand899@@3P6AMXZA DD 01H DUP (?)			; AGKCommand899
?AGKCommand900@@3P6AMXZA DD 01H DUP (?)			; AGKCommand900
?AGKCommand901@@3P6AMXZA DD 01H DUP (?)			; AGKCommand901
?AGKCommand902@@3P6AHXZA DD 01H DUP (?)			; AGKCommand902
?AGKCommand903@@3P6AHXZA DD 01H DUP (?)			; AGKCommand903
?AGKCommand904@@3P6AHXZA DD 01H DUP (?)			; AGKCommand904
?AGKCommand905@@3P6AHXZA DD 01H DUP (?)			; AGKCommand905
?AGKCommand906@@3P6AHXZA DD 01H DUP (?)			; AGKCommand906
?AGKCommand907@@3P6AHXZA DD 01H DUP (?)			; AGKCommand907
?AGKCommand908@@3P6AHXZA DD 01H DUP (?)			; AGKCommand908
?AGKCommand909@@3P6AHXZA DD 01H DUP (?)			; AGKCommand909
?AGKCommand910@@3P6AHXZA DD 01H DUP (?)			; AGKCommand910
?AGKCommand911@@3P6AHXZA DD 01H DUP (?)			; AGKCommand911
?AGKCommand912@@3P6AHXZA DD 01H DUP (?)			; AGKCommand912
?AGKCommand913@@3P6AHXZA DD 01H DUP (?)			; AGKCommand913
?AGKCommand914@@3P6AHXZA DD 01H DUP (?)			; AGKCommand914
?AGKCommand915@@3P6AHXZA DD 01H DUP (?)			; AGKCommand915
?AGKCommand916@@3P6AHXZA DD 01H DUP (?)			; AGKCommand916
?AGKCommand917@@3P6AMXZA DD 01H DUP (?)			; AGKCommand917
?AGKCommand918@@3P6AMXZA DD 01H DUP (?)			; AGKCommand918
?AGKCommand919@@3P6AMXZA DD 01H DUP (?)			; AGKCommand919
?AGKCommand920@@3P6AMXZA DD 01H DUP (?)			; AGKCommand920
?AGKCommand921@@3P6AMXZA DD 01H DUP (?)			; AGKCommand921
?AGKCommand922@@3P6AMXZA DD 01H DUP (?)			; AGKCommand922
?AGKCommand923@@3P6AMXZA DD 01H DUP (?)			; AGKCommand923
?AGKCommand924@@3P6AMXZA DD 01H DUP (?)			; AGKCommand924
?AGKCommand925@@3P6AMXZA DD 01H DUP (?)			; AGKCommand925
?AGKCommand926@@3P6AMXZA DD 01H DUP (?)			; AGKCommand926
?AGKCommand927@@3P6AMXZA DD 01H DUP (?)			; AGKCommand927
?AGKCommand928@@3P6AMXZA DD 01H DUP (?)			; AGKCommand928
?AGKCommand929@@3P6AMXZA DD 01H DUP (?)			; AGKCommand929
?AGKCommand930@@3P6AMXZA DD 01H DUP (?)			; AGKCommand930
?AGKCommand931@@3P6AMXZA DD 01H DUP (?)			; AGKCommand931
?AGKCommand932@@3P6AMXZA DD 01H DUP (?)			; AGKCommand932
?AGKCommand933@@3P6AMXZA DD 01H DUP (?)			; AGKCommand933
?AGKCommand934@@3P6AMXZA DD 01H DUP (?)			; AGKCommand934
?AGKCommand935@@3P6AMXZA DD 01H DUP (?)			; AGKCommand935
?AGKCommand936@@3P6AXXZA DD 01H DUP (?)			; AGKCommand936
?AGKCommand937@@3P6AHI@ZA DD 01H DUP (?)		; AGKCommand937
?AGKCommand938@@3P6AHI@ZA DD 01H DUP (?)		; AGKCommand938
?AGKCommand939@@3P6AMI@ZA DD 01H DUP (?)		; AGKCommand939
?AGKCommand940@@3P6AMI@ZA DD 01H DUP (?)		; AGKCommand940
?AGKCommand941@@3P6AMI@ZA DD 01H DUP (?)		; AGKCommand941
?AGKCommand942@@3P6AMI@ZA DD 01H DUP (?)		; AGKCommand942
?AGKCommand943@@3P6AMI@ZA DD 01H DUP (?)		; AGKCommand943
?AGKCommand944@@3P6AMI@ZA DD 01H DUP (?)		; AGKCommand944
?AGKCommand945@@3P6AHII@ZA DD 01H DUP (?)		; AGKCommand945
?AGKCommand946@@3P6AHII@ZA DD 01H DUP (?)		; AGKCommand946
?AGKCommand947@@3P6AHII@ZA DD 01H DUP (?)		; AGKCommand947
?AGKCommand948@@3P6AXM@ZA DD 01H DUP (?)		; AGKCommand948
?AGKCommand949@@3P6AXIMMM@ZA DD 01H DUP (?)		; AGKCommand949
?AGKCommand950@@3P6AXI@ZA DD 01H DUP (?)		; AGKCommand950
?AGKCommand951@@3P6AHI@ZA DD 01H DUP (?)		; AGKCommand951
?AGKCommand952@@3P6AMI@ZA DD 01H DUP (?)		; AGKCommand952
?AGKCommand953@@3P6AMI@ZA DD 01H DUP (?)		; AGKCommand953
?AGKCommand954@@3P6AXIII@ZA DD 01H DUP (?)		; AGKCommand954
?AGKCommand955@@3P6AXIMM@ZA DD 01H DUP (?)		; AGKCommand955
?AGKCommand956@@3P6AXIM@ZA DD 01H DUP (?)		; AGKCommand956
?AGKCommand957@@3P6AXIH@ZA DD 01H DUP (?)		; AGKCommand957
?AGKCommand958@@3P6AXIH@ZA DD 01H DUP (?)		; AGKCommand958
?AGKCommand959@@3P6AXII@ZA DD 01H DUP (?)		; AGKCommand959
?AGKCommand960@@3P6AXII@ZA DD 01H DUP (?)		; AGKCommand960
?AGKCommand961@@3P6AXM@ZA DD 01H DUP (?)		; AGKCommand961
?AGKCommand962@@3P6AXIMMM@ZA DD 01H DUP (?)		; AGKCommand962
?AGKCommand963@@3P6AXI@ZA DD 01H DUP (?)		; AGKCommand963
?AGKCommand964@@3P6AHI@ZA DD 01H DUP (?)		; AGKCommand964
?AGKCommand965@@3P6AHI@ZA DD 01H DUP (?)		; AGKCommand965
?AGKCommand966@@3P6AHI@ZA DD 01H DUP (?)		; AGKCommand966
?AGKCommand967@@3P6AHI@ZA DD 01H DUP (?)		; AGKCommand967
?AGKCommand968@@3P6AXIIII@ZA DD 01H DUP (?)		; AGKCommand968
?AGKCommand969@@3P6AXII@ZA DD 01H DUP (?)		; AGKCommand969
?AGKCommand970@@3P6AXIMM@ZA DD 01H DUP (?)		; AGKCommand970
?AGKCommand971@@3P6AXIM@ZA DD 01H DUP (?)		; AGKCommand971
?AGKCommand972@@3P6AXIMM@ZA DD 01H DUP (?)		; AGKCommand972
?AGKCommand973@@3P6AXIH@ZA DD 01H DUP (?)		; AGKCommand973
?AGKCommand974@@3P6AXIH@ZA DD 01H DUP (?)		; AGKCommand974
?AGKCommand975@@3P6AXII@ZA DD 01H DUP (?)		; AGKCommand975
?AGKCommand976@@3P6AXII@ZA DD 01H DUP (?)		; AGKCommand976
?AGKCommand977@@3P6AXIPBD@ZA DD 01H DUP (?)		; AGKCommand977
?AGKCommand978@@3P6AHI@ZA DD 01H DUP (?)		; AGKCommand978
?AGKCommand979@@3P6AHI@ZA DD 01H DUP (?)		; AGKCommand979
?AGKCommand980@@3P6AHI@ZA DD 01H DUP (?)		; AGKCommand980
?AGKCommand981@@3P6AHXZA DD 01H DUP (?)			; AGKCommand981
?AGKCommand982@@3P6AMXZA DD 01H DUP (?)			; AGKCommand982
?AGKCommand983@@3P6AMXZA DD 01H DUP (?)			; AGKCommand983
?AGKCommand984@@3P6AMXZA DD 01H DUP (?)			; AGKCommand984
?AGKCommand985@@3P6AMXZA DD 01H DUP (?)			; AGKCommand985
?AGKCommand986@@3P6AHXZA DD 01H DUP (?)			; AGKCommand986
?AGKCommand987@@3P6AHXZA DD 01H DUP (?)			; AGKCommand987
?AGKCommand988@@3P6AHXZA DD 01H DUP (?)			; AGKCommand988
?AGKCommand989@@3P6AMXZA DD 01H DUP (?)			; AGKCommand989
?AGKCommand990@@3P6AMXZA DD 01H DUP (?)			; AGKCommand990
?AGKCommand991@@3P6AMXZA DD 01H DUP (?)			; AGKCommand991
?AGKCommand992@@3P6AMXZA DD 01H DUP (?)			; AGKCommand992
?AGKCommand993@@3P6AXM@ZA DD 01H DUP (?)		; AGKCommand993
?AGKCommand994@@3P6AXMMM@ZA DD 01H DUP (?)		; AGKCommand994
?AGKCommand995@@3P6AHI@ZA DD 01H DUP (?)		; AGKCommand995
?AGKCommand996@@3P6AHI@ZA DD 01H DUP (?)		; AGKCommand996
?AGKCommand997@@3P6AHI@ZA DD 01H DUP (?)		; AGKCommand997
?AGKCommand998@@3P6AXIMMM@ZA DD 01H DUP (?)		; AGKCommand998
?AGKCommand999@@3P6AXXZA DD 01H DUP (?)			; AGKCommand999
?AGKCommand1000@@3P6AXPBD@ZA DD 01H DUP (?)		; AGKCommand1000
?AGKCommand1001@@3P6AXXZA DD 01H DUP (?)		; AGKCommand1001
?AGKCommand1002@@3P6AHXZA DD 01H DUP (?)		; AGKCommand1002
?AGKCommand1003@@3P6AHXZA DD 01H DUP (?)		; AGKCommand1003
?AGKCommand1004@@3P6AHXZA DD 01H DUP (?)		; AGKCommand1004
?AGKCommand1005@@3P6APADXZA DD 01H DUP (?)		; AGKCommand1005
?AGKCommand1006@@3P6AIXZA DD 01H DUP (?)		; AGKCommand1006
?AGKCommand1007@@3P6AXM@ZA DD 01H DUP (?)		; AGKCommand1007
?AGKCommand1008@@3P6AXH@ZA DD 01H DUP (?)		; AGKCommand1008
?AGKCommand1009@@3P6AXI@ZA DD 01H DUP (?)		; AGKCommand1009
?AGKCommand1010@@3P6AIXZA DD 01H DUP (?)		; AGKCommand1010
?AGKCommand1011@@3P6AHI@ZA DD 01H DUP (?)		; AGKCommand1011
?AGKCommand1012@@3P6AXI@ZA DD 01H DUP (?)		; AGKCommand1012
?AGKCommand1013@@3P6AHI@ZA DD 01H DUP (?)		; AGKCommand1013
?AGKCommand1014@@3P6AIXZA DD 01H DUP (?)		; AGKCommand1014
?AGKCommand1015@@3P6AXIMM@ZA DD 01H DUP (?)		; AGKCommand1015
?AGKCommand1016@@3P6AXIMM@ZA DD 01H DUP (?)		; AGKCommand1016
?AGKCommand1017@@3P6AXIH@ZA DD 01H DUP (?)		; AGKCommand1017
?AGKCommand1018@@3P6AXIM@ZA DD 01H DUP (?)		; AGKCommand1018
?AGKCommand1019@@3P6AXIIIII@ZA DD 01H DUP (?)		; AGKCommand1019
?AGKCommand1020@@3P6AXIIIII@ZA DD 01H DUP (?)		; AGKCommand1020
?AGKCommand1021@@3P6AXIPBD@ZA DD 01H DUP (?)		; AGKCommand1021
?AGKCommand1022@@3P6AXIIII@ZA DD 01H DUP (?)		; AGKCommand1022
?AGKCommand1023@@3P6AXIIII@ZA DD 01H DUP (?)		; AGKCommand1023
?AGKCommand1024@@3P6AXII@ZA DD 01H DUP (?)		; AGKCommand1024
?AGKCommand1025@@3P6AXII@ZA DD 01H DUP (?)		; AGKCommand1025
?AGKCommand1026@@3P6AXII@ZA DD 01H DUP (?)		; AGKCommand1026
?AGKCommand1027@@3P6AXIM@ZA DD 01H DUP (?)		; AGKCommand1027
?AGKCommand1028@@3P6AXIH@ZA DD 01H DUP (?)		; AGKCommand1028
?AGKCommand1029@@3P6AXIH@ZA DD 01H DUP (?)		; AGKCommand1029
?AGKCommand1030@@3P6AXIH@ZA DD 01H DUP (?)		; AGKCommand1030
?AGKCommand1031@@3P6AXIH@ZA DD 01H DUP (?)		; AGKCommand1031
?AGKCommand1032@@3P6AXII@ZA DD 01H DUP (?)		; AGKCommand1032
?AGKCommand1033@@3P6AXII@ZA DD 01H DUP (?)		; AGKCommand1033
?AGKCommand1034@@3P6AXIM@ZA DD 01H DUP (?)		; AGKCommand1034
?AGKCommand1035@@3P6AXIM@ZA DD 01H DUP (?)		; AGKCommand1035
?AGKCommand1036@@3P6AXII@ZA DD 01H DUP (?)		; AGKCommand1036
?AGKCommand1037@@3P6AXII@ZA DD 01H DUP (?)		; AGKCommand1037
?AGKCommand1038@@3P6AXIH@ZA DD 01H DUP (?)		; AGKCommand1038
?AGKCommand1039@@3P6AXIMMMM@ZA DD 01H DUP (?)		; AGKCommand1039
?AGKCommand1040@@3P6AXIH@ZA DD 01H DUP (?)		; AGKCommand1040
?AGKCommand1041@@3P6AXIH@ZA DD 01H DUP (?)		; AGKCommand1041
?AGKCommand1042@@3P6AXIH@ZA DD 01H DUP (?)		; AGKCommand1042
?AGKCommand1043@@3P6AXIH@ZA DD 01H DUP (?)		; AGKCommand1043
?AGKCommand1044@@3P6APADI@ZA DD 01H DUP (?)		; AGKCommand1044
?AGKCommand1045@@3P6AMI@ZA DD 01H DUP (?)		; AGKCommand1045
?AGKCommand1046@@3P6AMI@ZA DD 01H DUP (?)		; AGKCommand1046
?AGKCommand1047@@3P6AMI@ZA DD 01H DUP (?)		; AGKCommand1047
?AGKCommand1048@@3P6AMI@ZA DD 01H DUP (?)		; AGKCommand1048
?AGKCommand1049@@3P6AHI@ZA DD 01H DUP (?)		; AGKCommand1049
?AGKCommand1050@@3P6AHI@ZA DD 01H DUP (?)		; AGKCommand1050
?AGKCommand1051@@3P6AHI@ZA DD 01H DUP (?)		; AGKCommand1051
?AGKCommand1052@@3P6AHI@ZA DD 01H DUP (?)		; AGKCommand1052
?AGKCommand1053@@3P6AHI@ZA DD 01H DUP (?)		; AGKCommand1053
?AGKCommand1054@@3P6AIXZA DD 01H DUP (?)		; AGKCommand1054
?AGKCommand1055@@3P6AIXZA DD 01H DUP (?)		; AGKCommand1055
?AGKCommand1056@@3P6AIXZA DD 01H DUP (?)		; AGKCommand1056
?AGKCommand1057@@3P6AIXZA DD 01H DUP (?)		; AGKCommand1057
?AGKCommand1058@@3P6AIXZA DD 01H DUP (?)		; AGKCommand1058
?AGKCommand1059@@3P6AIXZA DD 01H DUP (?)		; AGKCommand1059
?AGKCommand1060@@3P6AIXZA DD 01H DUP (?)		; AGKCommand1060
?AGKCommand1061@@3P6AMXZA DD 01H DUP (?)		; AGKCommand1061
?AGKCommand1062@@3P6AMXZA DD 01H DUP (?)		; AGKCommand1062
?AGKCommand1063@@3P6AMXZA DD 01H DUP (?)		; AGKCommand1063
?AGKCommand1064@@3P6AMXZA DD 01H DUP (?)		; AGKCommand1064
?AGKCommand1065@@3P6AIXZA DD 01H DUP (?)		; AGKCommand1065
?AGKCommand1066@@3P6AIXZA DD 01H DUP (?)		; AGKCommand1066
?AGKCommand1067@@3P6APADI@ZA DD 01H DUP (?)		; AGKCommand1067
?AGKCommand1068@@3P6AMXZA DD 01H DUP (?)		; AGKCommand1068
?AGKCommand1069@@3P6AHH@ZA DD 01H DUP (?)		; AGKCommand1069
?AGKCommand1070@@3P6AHHHHHHH@ZA DD 01H DUP (?)		; AGKCommand1070
?AGKCommand1071@@3P6AHH@ZA DD 01H DUP (?)		; AGKCommand1071
?AGKCommand1072@@3P6AHH@ZA DD 01H DUP (?)		; AGKCommand1072
?AGKCommand1073@@3P6AHH@ZA DD 01H DUP (?)		; AGKCommand1073
?AGKCommand1074@@3P6AHH@ZA DD 01H DUP (?)		; AGKCommand1074
?AGKCommand1075@@3P6AHH@ZA DD 01H DUP (?)		; AGKCommand1075
?AGKCommand1076@@3P6AHH@ZA DD 01H DUP (?)		; AGKCommand1076
?AGKCommand1077@@3P6AXPBD@ZA DD 01H DUP (?)		; AGKCommand1077
?AGKCommand1078@@3P6AXPBD@ZA DD 01H DUP (?)		; AGKCommand1078
?AGKCommand1079@@3P6AXPBD@ZA DD 01H DUP (?)		; AGKCommand1079
?AGKCommand1080@@3P6AXPBD0@ZA DD 01H DUP (?)		; AGKCommand1080
?AGKCommand1081@@3P6AXPBD@ZA DD 01H DUP (?)		; AGKCommand1081
?AGKCommand1082@@3P6AXH@ZA DD 01H DUP (?)		; AGKCommand1082
?AGKCommand1083@@3P6AXH@ZA DD 01H DUP (?)		; AGKCommand1083
?AGKCommand1084@@3P6AXXZA DD 01H DUP (?)		; AGKCommand1084
?AGKCommand1085@@3P6AXXZA DD 01H DUP (?)		; AGKCommand1085
?AGKCommand1086@@3P6AXXZA DD 01H DUP (?)		; AGKCommand1086
?AGKCommand1087@@3P6AHXZA DD 01H DUP (?)		; AGKCommand1087
?AGKCommand1088@@3P6AHXZA DD 01H DUP (?)		; AGKCommand1088
?AGKCommand1089@@3P6AHXZA DD 01H DUP (?)		; AGKCommand1089
?AGKCommand1090@@3P6AXXZA DD 01H DUP (?)		; AGKCommand1090
?AGKCommand1091@@3P6AHXZA DD 01H DUP (?)		; AGKCommand1091
?AGKCommand1092@@3P6AHXZA DD 01H DUP (?)		; AGKCommand1092
?AGKCommand1093@@3P6AXXZA DD 01H DUP (?)		; AGKCommand1093
?AGKCommand1094@@3P6AXXZA DD 01H DUP (?)		; AGKCommand1094
?AGKCommand1095@@3P6AXXZA DD 01H DUP (?)		; AGKCommand1095
?AGKCommand1096@@3P6AHXZA DD 01H DUP (?)		; AGKCommand1096
?AGKCommand1097@@3P6AHXZA DD 01H DUP (?)		; AGKCommand1097
?AGKCommand1098@@3P6AXXZA DD 01H DUP (?)		; AGKCommand1098
?AGKCommand1099@@3P6AXXZA DD 01H DUP (?)		; AGKCommand1099
?AGKCommand1100@@3P6AXHHHH@ZA DD 01H DUP (?)		; AGKCommand1100
?AGKCommand1101@@3P6AXHHHHMM@ZA DD 01H DUP (?)		; AGKCommand1101
?AGKCommand1102@@3P6AXMMM@ZA DD 01H DUP (?)		; AGKCommand1102
?AGKCommand1103@@3P6AXHHM@ZA DD 01H DUP (?)		; AGKCommand1103
?AGKCommand1104@@3P6AXHHMMM@ZA DD 01H DUP (?)		; AGKCommand1104
?AGKCommand1105@@3P6AXH@ZA DD 01H DUP (?)		; AGKCommand1105
?AGKCommand1106@@3P6AXXZA DD 01H DUP (?)		; AGKCommand1106
?AGKCommand1107@@3P6AXXZA DD 01H DUP (?)		; AGKCommand1107
?AGKCommand1108@@3P6AXIPBD@ZA DD 01H DUP (?)		; AGKCommand1108
?AGKCommand1109@@3P6AIPBD@ZA DD 01H DUP (?)		; AGKCommand1109
?AGKCommand1110@@3P6AXIPBD0@ZA DD 01H DUP (?)		; AGKCommand1110
?AGKCommand1111@@3P6AXI@ZA DD 01H DUP (?)		; AGKCommand1111
?AGKCommand1112@@3P6AXPBD0@ZA DD 01H DUP (?)		; AGKCommand1112
?AGKCommand1113@@3P6AXPBD@ZA DD 01H DUP (?)		; AGKCommand1113
?AGKCommand1114@@3P6AXPBD@ZA DD 01H DUP (?)		; AGKCommand1114
?AGKCommand1115@@3P6AXPBD0@ZA DD 01H DUP (?)		; AGKCommand1115
?AGKCommand1116@@3P6AXPBD00@ZA DD 01H DUP (?)		; AGKCommand1116
?AGKCommand1117@@3P6AXXZA DD 01H DUP (?)		; AGKCommand1117
?AGKCommand1118@@3P6AXPBD0@ZA DD 01H DUP (?)		; AGKCommand1118
?AGKCommand1119@@3P6AXPBD@ZA DD 01H DUP (?)		; AGKCommand1119
?AGKCommand1120@@3P6AXPBDH@ZA DD 01H DUP (?)		; AGKCommand1120
?AGKCommand1121@@3P6AXXZA DD 01H DUP (?)		; AGKCommand1121
?AGKCommand1122@@3P6AHH@ZA DD 01H DUP (?)		; AGKCommand1122
?AGKCommand1123@@3P6AXH@ZA DD 01H DUP (?)		; AGKCommand1123
?AGKCommand1124@@3P6APADH@ZA DD 01H DUP (?)		; AGKCommand1124
?AGKCommand1125@@3P6APADH@ZA DD 01H DUP (?)		; AGKCommand1125
?AGKCommand1126@@3P6AHXZA DD 01H DUP (?)		; AGKCommand1126
?AGKCommand1127@@3P6AXXZA DD 01H DUP (?)		; AGKCommand1127
?AGKCommand1128@@3P6APADH@ZA DD 01H DUP (?)		; AGKCommand1128
?AGKCommand1129@@3P6AXPBD0@ZA DD 01H DUP (?)		; AGKCommand1129
?AGKCommand1130@@3P6AXPBD@ZA DD 01H DUP (?)		; AGKCommand1130
?AGKCommand1131@@3P6AXPBD@ZA DD 01H DUP (?)		; AGKCommand1131
?AGKCommand1132@@3P6AHXZA DD 01H DUP (?)		; AGKCommand1132
?AGKCommand1133@@3P6APADXZA DD 01H DUP (?)		; AGKCommand1133
?AGKCommand1134@@3P6APADXZA DD 01H DUP (?)		; AGKCommand1134
?AGKCommand1135@@3P6APADXZA DD 01H DUP (?)		; AGKCommand1135
?AGKCommand1136@@3P6AXXZA DD 01H DUP (?)		; AGKCommand1136
?AGKCommand1137@@3P6AXXZA DD 01H DUP (?)		; AGKCommand1137
?AGKCommand1138@@3P6AXPBD0000@ZA DD 01H DUP (?)		; AGKCommand1138
?AGKCommand1139@@3P6AXPBD00000@ZA DD 01H DUP (?)	; AGKCommand1139
?AGKCommand1140@@3P6AXPBD0@ZA DD 01H DUP (?)		; AGKCommand1140
?AGKCommand1141@@3P6AXPBDHHHH@ZA DD 01H DUP (?)		; AGKCommand1141
?AGKCommand1142@@3P6AXXZA DD 01H DUP (?)		; AGKCommand1142
?AGKCommand1143@@3P6AXXZA DD 01H DUP (?)		; AGKCommand1143
?AGKCommand1144@@3P6AHXZA DD 01H DUP (?)		; AGKCommand1144
?AGKCommand1145@@3P6AHXZA DD 01H DUP (?)		; AGKCommand1145
?AGKCommand1146@@3P6APADH@ZA DD 01H DUP (?)		; AGKCommand1146
?AGKCommand1147@@3P6APADH@ZA DD 01H DUP (?)		; AGKCommand1147
?AGKCommand1148@@3P6AXH@ZA DD 01H DUP (?)		; AGKCommand1148
?AGKCommand1149@@3P6AHXZA DD 01H DUP (?)		; AGKCommand1149
?AGKCommand1150@@3P6APADXZA DD 01H DUP (?)		; AGKCommand1150
?AGKCommand1151@@3P6AXPBD00@ZA DD 01H DUP (?)		; AGKCommand1151
?AGKCommand1152@@3P6AHXZA DD 01H DUP (?)		; AGKCommand1152
?AGKCommand1153@@3P6APADXZA DD 01H DUP (?)		; AGKCommand1153
?AGKCommand1154@@3P6AXXZA DD 01H DUP (?)		; AGKCommand1154
?AGKCommand1155@@3P6AXHHPBD@ZA DD 01H DUP (?)		; AGKCommand1155
?AGKCommand1156@@3P6AXH@ZA DD 01H DUP (?)		; AGKCommand1156
?AGKCommand1157@@3P6AHH@ZA DD 01H DUP (?)		; AGKCommand1157
?AGKCommand1158@@3P6AHH@ZA DD 01H DUP (?)		; AGKCommand1158
?AGKCommand1159@@3P6APADH@ZA DD 01H DUP (?)		; AGKCommand1159
?AGKCommand1160@@3P6AIIII@ZA DD 01H DUP (?)		; AGKCommand1160
?AGKCommand1161@@3P6AII@ZA DD 01H DUP (?)		; AGKCommand1161
?AGKCommand1162@@3P6AII@ZA DD 01H DUP (?)		; AGKCommand1162
?AGKCommand1163@@3P6AII@ZA DD 01H DUP (?)		; AGKCommand1163
?AGKCommand1164@@3P6AXMMMMIII@ZA DD 01H DUP (?)		; AGKCommand1164
?AGKCommand1165@@3P6AXMMMMII@ZA DD 01H DUP (?)		; AGKCommand1165
?AGKCommand1166@@3P6AXMMMMIIIIH@ZA DD 01H DUP (?)	; AGKCommand1166
?AGKCommand1167@@3P6AXMMMMIIH@ZA DD 01H DUP (?)		; AGKCommand1167
?AGKCommand1168@@3P6AII@ZA DD 01H DUP (?)		; AGKCommand1168
?AGKCommand1169@@3P6AXII@ZA DD 01H DUP (?)		; AGKCommand1169
?AGKCommand1170@@3P6AHI@ZA DD 01H DUP (?)		; AGKCommand1170
?AGKCommand1171@@3P6AXI@ZA DD 01H DUP (?)		; AGKCommand1171
?AGKCommand1172@@3P6AXIIIII@ZA DD 01H DUP (?)		; AGKCommand1172
?AGKCommand1173@@3P6AHI@ZA DD 01H DUP (?)		; AGKCommand1173
?AGKCommand1174@@3P6AHII@ZA DD 01H DUP (?)		; AGKCommand1174
?AGKCommand1175@@3P6AHII@ZA DD 01H DUP (?)		; AGKCommand1175
?AGKCommand1176@@3P6AHII@ZA DD 01H DUP (?)		; AGKCommand1176
?AGKCommand1177@@3P6AHII@ZA DD 01H DUP (?)		; AGKCommand1177
?AGKCommand1178@@3P6AMII@ZA DD 01H DUP (?)		; AGKCommand1178
?AGKCommand1179@@3P6APADIII@ZA DD 01H DUP (?)		; AGKCommand1179
?AGKCommand1180@@3P6AXIIH@ZA DD 01H DUP (?)		; AGKCommand1180
?AGKCommand1181@@3P6AXIIH@ZA DD 01H DUP (?)		; AGKCommand1181
?AGKCommand1182@@3P6AXIIH@ZA DD 01H DUP (?)		; AGKCommand1182
?AGKCommand1183@@3P6AXIIH@ZA DD 01H DUP (?)		; AGKCommand1183
?AGKCommand1184@@3P6AXIIM@ZA DD 01H DUP (?)		; AGKCommand1184
?AGKCommand1185@@3P6AXIIPBD@ZA DD 01H DUP (?)		; AGKCommand1185
?AGKCommand1186@@3P6AXII@ZA DD 01H DUP (?)		; AGKCommand1186
?AGKCommand1187@@3P6AII@ZA DD 01H DUP (?)		; AGKCommand1187
?AGKCommand1188@@3P6AXII@ZA DD 01H DUP (?)		; AGKCommand1188
?AGKCommand1189@@3P6AII@ZA DD 01H DUP (?)		; AGKCommand1189
?AGKCommand1190@@3P6AXII@ZA DD 01H DUP (?)		; AGKCommand1190
?AGKCommand1191@@3P6AII@ZA DD 01H DUP (?)		; AGKCommand1191
?AGKCommand1192@@3P6AXII@ZA DD 01H DUP (?)		; AGKCommand1192
?AGKCommand1193@@3P6AII@ZA DD 01H DUP (?)		; AGKCommand1193
?AGKCommand1194@@3P6AXIPBD@ZA DD 01H DUP (?)		; AGKCommand1194
?AGKCommand1195@@3P6AIPBD@ZA DD 01H DUP (?)		; AGKCommand1195
?AGKCommand1196@@3P6AXPBDI@ZA DD 01H DUP (?)		; AGKCommand1196
?AGKCommand1197@@3P6AXIII@ZA DD 01H DUP (?)		; AGKCommand1197
?AGKCommand1198@@3P6AIII@ZA DD 01H DUP (?)		; AGKCommand1198
?AGKCommand1199@@3P6AXII@ZA DD 01H DUP (?)		; AGKCommand1199
?AGKCommand1200@@3P6AII@ZA DD 01H DUP (?)		; AGKCommand1200
?AGKCommand1201@@3P6AXIII@ZA DD 01H DUP (?)		; AGKCommand1201
?AGKCommand1202@@3P6AXII@ZA DD 01H DUP (?)		; AGKCommand1202
?AGKCommand1203@@3P6AXIIMMM@ZA DD 01H DUP (?)		; AGKCommand1203
?AGKCommand1204@@3P6AXIIMMM@ZA DD 01H DUP (?)		; AGKCommand1204
?AGKCommand1205@@3P6AXIIMM@ZA DD 01H DUP (?)		; AGKCommand1205
?AGKCommand1206@@3P6AMII@ZA DD 01H DUP (?)		; AGKCommand1206
?AGKCommand1207@@3P6AMII@ZA DD 01H DUP (?)		; AGKCommand1207
?AGKCommand1208@@3P6AMII@ZA DD 01H DUP (?)		; AGKCommand1208
?AGKCommand1209@@3P6AMII@ZA DD 01H DUP (?)		; AGKCommand1209
?AGKCommand1210@@3P6AMII@ZA DD 01H DUP (?)		; AGKCommand1210
?AGKCommand1211@@3P6AMII@ZA DD 01H DUP (?)		; AGKCommand1211
?AGKCommand1212@@3P6AMII@ZA DD 01H DUP (?)		; AGKCommand1212
?AGKCommand1213@@3P6AMII@ZA DD 01H DUP (?)		; AGKCommand1213
?AGKCommand1214@@3P6AXH@ZA DD 01H DUP (?)		; AGKCommand1214
?AGKCommand1215@@3P6AXIMMM@ZA DD 01H DUP (?)		; AGKCommand1215
?AGKCommand1216@@3P6AIMMM@ZA DD 01H DUP (?)		; AGKCommand1216
?AGKCommand1217@@3P6AXIMMH@ZA DD 01H DUP (?)		; AGKCommand1217
?AGKCommand1218@@3P6AIMMH@ZA DD 01H DUP (?)		; AGKCommand1218
?AGKCommand1219@@3P6AXIMHH@ZA DD 01H DUP (?)		; AGKCommand1219
?AGKCommand1220@@3P6AIMHH@ZA DD 01H DUP (?)		; AGKCommand1220
?AGKCommand1221@@3P6AXIMMH@ZA DD 01H DUP (?)		; AGKCommand1221
?AGKCommand1222@@3P6AIMMH@ZA DD 01H DUP (?)		; AGKCommand1222
?AGKCommand1223@@3P6AXIMMH@ZA DD 01H DUP (?)		; AGKCommand1223
?AGKCommand1224@@3P6AIMMH@ZA DD 01H DUP (?)		; AGKCommand1224
?AGKCommand1225@@3P6AXIMM@ZA DD 01H DUP (?)		; AGKCommand1225
?AGKCommand1226@@3P6AIMM@ZA DD 01H DUP (?)		; AGKCommand1226
?AGKCommand1227@@3P6AXI@ZA DD 01H DUP (?)		; AGKCommand1227
?AGKCommand1228@@3P6AIXZA DD 01H DUP (?)		; AGKCommand1228
?AGKCommand1229@@3P6AIPBDMMMHH@ZA DD 01H DUP (?)	; AGKCommand1229
?AGKCommand1230@@3P6AXIPBDMMMHH@ZA DD 01H DUP (?)	; AGKCommand1230
?AGKCommand1231@@3P6AIII@ZA DD 01H DUP (?)		; AGKCommand1231
?AGKCommand1232@@3P6AXIII@ZA DD 01H DUP (?)		; AGKCommand1232
?AGKCommand1233@@3P6AIPBD@ZA DD 01H DUP (?)		; AGKCommand1233
?AGKCommand1234@@3P6AIPBDM@ZA DD 01H DUP (?)		; AGKCommand1234
?AGKCommand1235@@3P6AXIPBD@ZA DD 01H DUP (?)		; AGKCommand1235
?AGKCommand1236@@3P6AXIPBDM@ZA DD 01H DUP (?)		; AGKCommand1236
?AGKCommand1237@@3P6AIPBD@ZA DD 01H DUP (?)		; AGKCommand1237
?AGKCommand1238@@3P6AXIPBD@ZA DD 01H DUP (?)		; AGKCommand1238
?AGKCommand1239@@3P6AXIPBD@ZA DD 01H DUP (?)		; AGKCommand1239
?AGKCommand1240@@3P6AII@ZA DD 01H DUP (?)		; AGKCommand1240
?AGKCommand1241@@3P6AXII@ZA DD 01H DUP (?)		; AGKCommand1241
?AGKCommand1242@@3P6AII@ZA DD 01H DUP (?)		; AGKCommand1242
?AGKCommand1243@@3P6AXII@ZA DD 01H DUP (?)		; AGKCommand1243
?AGKCommand1244@@3P6AHI@ZA DD 01H DUP (?)		; AGKCommand1244
?AGKCommand1245@@3P6AXI@ZA DD 01H DUP (?)		; AGKCommand1245
?AGKCommand1246@@3P6AXI@ZA DD 01H DUP (?)		; AGKCommand1246
?AGKCommand1247@@3P6AXXZA DD 01H DUP (?)		; AGKCommand1247
?AGKCommand1248@@3P6AII@ZA DD 01H DUP (?)		; AGKCommand1248
?AGKCommand1249@@3P6AIIH@ZA DD 01H DUP (?)		; AGKCommand1249
?AGKCommand1250@@3P6AII@ZA DD 01H DUP (?)		; AGKCommand1250
?AGKCommand1251@@3P6AIIPBD@ZA DD 01H DUP (?)		; AGKCommand1251
?AGKCommand1252@@3P6AII@ZA DD 01H DUP (?)		; AGKCommand1252
?AGKCommand1253@@3P6APADII@ZA DD 01H DUP (?)		; AGKCommand1253
?AGKCommand1254@@3P6AXIIII@ZA DD 01H DUP (?)		; AGKCommand1254
?AGKCommand1255@@3P6AXIII@ZA DD 01H DUP (?)		; AGKCommand1255
?AGKCommand1256@@3P6AXIII@ZA DD 01H DUP (?)		; AGKCommand1256
?AGKCommand1257@@3P6APADII@ZA DD 01H DUP (?)		; AGKCommand1257
?AGKCommand1258@@3P6APADII@ZA DD 01H DUP (?)		; AGKCommand1258
?AGKCommand1259@@3P6AXIIIMM@ZA DD 01H DUP (?)		; AGKCommand1259
?AGKCommand1260@@3P6AXIIIMM@ZA DD 01H DUP (?)		; AGKCommand1260
?AGKCommand1261@@3P6AMII@ZA DD 01H DUP (?)		; AGKCommand1261
?AGKCommand1262@@3P6AMII@ZA DD 01H DUP (?)		; AGKCommand1262
?AGKCommand1263@@3P6AMII@ZA DD 01H DUP (?)		; AGKCommand1263
?AGKCommand1264@@3P6AMII@ZA DD 01H DUP (?)		; AGKCommand1264
?AGKCommand1265@@3P6AMII@ZA DD 01H DUP (?)		; AGKCommand1265
?AGKCommand1266@@3P6AMII@ZA DD 01H DUP (?)		; AGKCommand1266
?AGKCommand1267@@3P6AXII@ZA DD 01H DUP (?)		; AGKCommand1267
?AGKCommand1268@@3P6AXIII@ZA DD 01H DUP (?)		; AGKCommand1268
?AGKCommand1269@@3P6AHI@ZA DD 01H DUP (?)		; AGKCommand1269
?AGKCommand1270@@3P6APADIH@ZA DD 01H DUP (?)		; AGKCommand1270
?AGKCommand1271@@3P6AXIPBDMMHM@ZA DD 01H DUP (?)	; AGKCommand1271
?AGKCommand1272@@3P6AXIPBDMM@ZA DD 01H DUP (?)		; AGKCommand1272
?AGKCommand1273@@3P6AXI@ZA DD 01H DUP (?)		; AGKCommand1273
?AGKCommand1274@@3P6AXI@ZA DD 01H DUP (?)		; AGKCommand1274
?AGKCommand1275@@3P6AXIM@ZA DD 01H DUP (?)		; AGKCommand1275
?AGKCommand1276@@3P6AHI@ZA DD 01H DUP (?)		; AGKCommand1276
?AGKCommand1277@@3P6AHI@ZA DD 01H DUP (?)		; AGKCommand1277
?AGKCommand1278@@3P6AMI@ZA DD 01H DUP (?)		; AGKCommand1278
?AGKCommand1279@@3P6AMIPBD@ZA DD 01H DUP (?)		; AGKCommand1279
?AGKCommand1280@@3P6AXIIMMM@ZA DD 01H DUP (?)		; AGKCommand1280
?AGKCommand1281@@3P6AXIIMMM@ZA DD 01H DUP (?)		; AGKCommand1281
?AGKCommand1282@@3P6AXIIMMMM@ZA DD 01H DUP (?)		; AGKCommand1282
?AGKCommand1283@@3P6AXIIMMMM@ZA DD 01H DUP (?)		; AGKCommand1283
?AGKCommand1284@@3P6AXIIH@ZA DD 01H DUP (?)		; AGKCommand1284
?AGKCommand1285@@3P6AXIIM@ZA DD 01H DUP (?)		; AGKCommand1285
?AGKCommand1286@@3P6AXIIM@ZA DD 01H DUP (?)		; AGKCommand1286
?AGKCommand1287@@3P6AXIIM@ZA DD 01H DUP (?)		; AGKCommand1287
?AGKCommand1288@@3P6APADII@ZA DD 01H DUP (?)		; AGKCommand1288
?AGKCommand1289@@3P6AMII@ZA DD 01H DUP (?)		; AGKCommand1289
?AGKCommand1290@@3P6AMII@ZA DD 01H DUP (?)		; AGKCommand1290
?AGKCommand1291@@3P6AMII@ZA DD 01H DUP (?)		; AGKCommand1291
?AGKCommand1292@@3P6AMII@ZA DD 01H DUP (?)		; AGKCommand1292
?AGKCommand1293@@3P6AMII@ZA DD 01H DUP (?)		; AGKCommand1293
?AGKCommand1294@@3P6AMII@ZA DD 01H DUP (?)		; AGKCommand1294
?AGKCommand1295@@3P6AMII@ZA DD 01H DUP (?)		; AGKCommand1295
?AGKCommand1296@@3P6AMII@ZA DD 01H DUP (?)		; AGKCommand1296
?AGKCommand1297@@3P6AMII@ZA DD 01H DUP (?)		; AGKCommand1297
?AGKCommand1298@@3P6AMII@ZA DD 01H DUP (?)		; AGKCommand1298
?AGKCommand1299@@3P6AMII@ZA DD 01H DUP (?)		; AGKCommand1299
?AGKCommand1300@@3P6AMII@ZA DD 01H DUP (?)		; AGKCommand1300
?AGKCommand1301@@3P6AMII@ZA DD 01H DUP (?)		; AGKCommand1301
?AGKCommand1302@@3P6AMII@ZA DD 01H DUP (?)		; AGKCommand1302
?AGKCommand1303@@3P6AMII@ZA DD 01H DUP (?)		; AGKCommand1303
?AGKCommand1304@@3P6AMII@ZA DD 01H DUP (?)		; AGKCommand1304
?AGKCommand1305@@3P6AMII@ZA DD 01H DUP (?)		; AGKCommand1305
?AGKCommand1306@@3P6AMII@ZA DD 01H DUP (?)		; AGKCommand1306
?AGKCommand1307@@3P6AMII@ZA DD 01H DUP (?)		; AGKCommand1307
?AGKCommand1308@@3P6AMII@ZA DD 01H DUP (?)		; AGKCommand1308
?AGKCommand1309@@3P6AXIMMM@ZA DD 01H DUP (?)		; AGKCommand1309
?AGKCommand1310@@3P6AXIMMM@ZA DD 01H DUP (?)		; AGKCommand1310
?AGKCommand1311@@3P6AXIMMMM@ZA DD 01H DUP (?)		; AGKCommand1311
?AGKCommand1312@@3P6AXIMMM@ZA DD 01H DUP (?)		; AGKCommand1312
?AGKCommand1313@@3P6AXIMMM@ZA DD 01H DUP (?)		; AGKCommand1313
?AGKCommand1314@@3P6AXIM@ZA DD 01H DUP (?)		; AGKCommand1314
?AGKCommand1315@@3P6AXIM@ZA DD 01H DUP (?)		; AGKCommand1315
?AGKCommand1316@@3P6AXIM@ZA DD 01H DUP (?)		; AGKCommand1316
?AGKCommand1317@@3P6AXIM@ZA DD 01H DUP (?)		; AGKCommand1317
?AGKCommand1318@@3P6AXIM@ZA DD 01H DUP (?)		; AGKCommand1318
?AGKCommand1319@@3P6AXIM@ZA DD 01H DUP (?)		; AGKCommand1319
?AGKCommand1320@@3P6AXIM@ZA DD 01H DUP (?)		; AGKCommand1320
?AGKCommand1321@@3P6AXIM@ZA DD 01H DUP (?)		; AGKCommand1321
?AGKCommand1322@@3P6AXIM@ZA DD 01H DUP (?)		; AGKCommand1322
?AGKCommand1323@@3P6AMI@ZA DD 01H DUP (?)		; AGKCommand1323
?AGKCommand1324@@3P6AMI@ZA DD 01H DUP (?)		; AGKCommand1324
?AGKCommand1325@@3P6AMI@ZA DD 01H DUP (?)		; AGKCommand1325
?AGKCommand1326@@3P6AMI@ZA DD 01H DUP (?)		; AGKCommand1326
?AGKCommand1327@@3P6AMI@ZA DD 01H DUP (?)		; AGKCommand1327
?AGKCommand1328@@3P6AMI@ZA DD 01H DUP (?)		; AGKCommand1328
?AGKCommand1329@@3P6AMI@ZA DD 01H DUP (?)		; AGKCommand1329
?AGKCommand1330@@3P6AMI@ZA DD 01H DUP (?)		; AGKCommand1330
?AGKCommand1331@@3P6AMI@ZA DD 01H DUP (?)		; AGKCommand1331
?AGKCommand1332@@3P6AMI@ZA DD 01H DUP (?)		; AGKCommand1332
?AGKCommand1333@@3P6AMI@ZA DD 01H DUP (?)		; AGKCommand1333
?AGKCommand1334@@3P6AMI@ZA DD 01H DUP (?)		; AGKCommand1334
?AGKCommand1335@@3P6AMI@ZA DD 01H DUP (?)		; AGKCommand1335
?AGKCommand1336@@3P6AMI@ZA DD 01H DUP (?)		; AGKCommand1336
?AGKCommand1337@@3P6AMI@ZA DD 01H DUP (?)		; AGKCommand1337
?AGKCommand1338@@3P6AMI@ZA DD 01H DUP (?)		; AGKCommand1338
?AGKCommand1339@@3P6AMI@ZA DD 01H DUP (?)		; AGKCommand1339
?AGKCommand1340@@3P6AMI@ZA DD 01H DUP (?)		; AGKCommand1340
?AGKCommand1341@@3P6AMI@ZA DD 01H DUP (?)		; AGKCommand1341
?AGKCommand1342@@3P6AMI@ZA DD 01H DUP (?)		; AGKCommand1342
?AGKCommand1343@@3P6AMI@ZA DD 01H DUP (?)		; AGKCommand1343
?AGKCommand1344@@3P6AMI@ZA DD 01H DUP (?)		; AGKCommand1344
?AGKCommand1345@@3P6AMI@ZA DD 01H DUP (?)		; AGKCommand1345
?AGKCommand1346@@3P6AMI@ZA DD 01H DUP (?)		; AGKCommand1346
?AGKCommand1347@@3P6AMI@ZA DD 01H DUP (?)		; AGKCommand1347
?AGKCommand1348@@3P6AMI@ZA DD 01H DUP (?)		; AGKCommand1348
?AGKCommand1349@@3P6AXIMMMM@ZA DD 01H DUP (?)		; AGKCommand1349
?AGKCommand1350@@3P6AXI@ZA DD 01H DUP (?)		; AGKCommand1350
?AGKCommand1351@@3P6AMIMM@ZA DD 01H DUP (?)		; AGKCommand1351
?AGKCommand1352@@3P6AXIII@ZA DD 01H DUP (?)		; AGKCommand1352
?AGKCommand1353@@3P6AXII@ZA DD 01H DUP (?)		; AGKCommand1353
?AGKCommand1354@@3P6AXII@ZA DD 01H DUP (?)		; AGKCommand1354
?AGKCommand1355@@3P6AXIHHHH@ZA DD 01H DUP (?)		; AGKCommand1355
?AGKCommand1356@@3P6AXIHHH@ZA DD 01H DUP (?)		; AGKCommand1356
?AGKCommand1357@@3P6AXIH@ZA DD 01H DUP (?)		; AGKCommand1357
?AGKCommand1358@@3P6AXIH@ZA DD 01H DUP (?)		; AGKCommand1358
?AGKCommand1359@@3P6AXIIMM@ZA DD 01H DUP (?)		; AGKCommand1359
?AGKCommand1360@@3P6AXIIMM@ZA DD 01H DUP (?)		; AGKCommand1360
?AGKCommand1361@@3P6AXIH@ZA DD 01H DUP (?)		; AGKCommand1361
?AGKCommand1362@@3P6AXIH@ZA DD 01H DUP (?)		; AGKCommand1362
?AGKCommand1363@@3P6AXIH@ZA DD 01H DUP (?)		; AGKCommand1363
?AGKCommand1364@@3P6AXIM@ZA DD 01H DUP (?)		; AGKCommand1364
?AGKCommand1365@@3P6AXIMM@ZA DD 01H DUP (?)		; AGKCommand1365
?AGKCommand1366@@3P6AXIH@ZA DD 01H DUP (?)		; AGKCommand1366
?AGKCommand1367@@3P6AXIH@ZA DD 01H DUP (?)		; AGKCommand1367
?AGKCommand1368@@3P6AXIH@ZA DD 01H DUP (?)		; AGKCommand1368
?AGKCommand1369@@3P6AXIH@ZA DD 01H DUP (?)		; AGKCommand1369
?AGKCommand1370@@3P6AHI@ZA DD 01H DUP (?)		; AGKCommand1370
?AGKCommand1371@@3P6AHI@ZA DD 01H DUP (?)		; AGKCommand1371
?AGKCommand1372@@3P6AMI@ZA DD 01H DUP (?)		; AGKCommand1372
?AGKCommand1373@@3P6AHI@ZA DD 01H DUP (?)		; AGKCommand1373
?AGKCommand1374@@3P6AHI@ZA DD 01H DUP (?)		; AGKCommand1374
?AGKCommand1375@@3P6AHI@ZA DD 01H DUP (?)		; AGKCommand1375
?AGKCommand1376@@3P6AHI@ZA DD 01H DUP (?)		; AGKCommand1376
?AGKCommand1377@@3P6APADI@ZA DD 01H DUP (?)		; AGKCommand1377
?AGKCommand1378@@3P6AXIPBDMMMM@ZA DD 01H DUP (?)	; AGKCommand1378
?AGKCommand1379@@3P6AXIPBDIMMMM@ZA DD 01H DUP (?)	; AGKCommand1379
?AGKCommand1380@@3P6AXIPBD@ZA DD 01H DUP (?)		; AGKCommand1380
?AGKCommand1381@@3P6AXI@ZA DD 01H DUP (?)		; AGKCommand1381
?AGKCommand1382@@3P6AMMMM@ZA DD 01H DUP (?)		; AGKCommand1382
?AGKCommand1383@@3P6AMMMM@ZA DD 01H DUP (?)		; AGKCommand1383
?AGKCommand1384@@3P6AMMM@ZA DD 01H DUP (?)		; AGKCommand1384
?AGKCommand1385@@3P6AMMM@ZA DD 01H DUP (?)		; AGKCommand1385
?AGKCommand1386@@3P6AMMM@ZA DD 01H DUP (?)		; AGKCommand1386
?AGKCommand1387@@3P6AXIH@ZA DD 01H DUP (?)		; AGKCommand1387
?AGKCommand1388@@3P6AHIMMMMMM@ZA DD 01H DUP (?)		; AGKCommand1388
?AGKCommand1389@@3P6AHIMMMMMMM@ZA DD 01H DUP (?)	; AGKCommand1389
?AGKCommand1390@@3P6AHIMMMMMMM@ZA DD 01H DUP (?)	; AGKCommand1390
?AGKCommand1391@@3P6AIXZA DD 01H DUP (?)		; AGKCommand1391
?AGKCommand1392@@3P6AII@ZA DD 01H DUP (?)		; AGKCommand1392
?AGKCommand1393@@3P6AMI@ZA DD 01H DUP (?)		; AGKCommand1393
?AGKCommand1394@@3P6AMI@ZA DD 01H DUP (?)		; AGKCommand1394
?AGKCommand1395@@3P6AMI@ZA DD 01H DUP (?)		; AGKCommand1395
?AGKCommand1396@@3P6AMI@ZA DD 01H DUP (?)		; AGKCommand1396
?AGKCommand1397@@3P6AMI@ZA DD 01H DUP (?)		; AGKCommand1397
?AGKCommand1398@@3P6AMI@ZA DD 01H DUP (?)		; AGKCommand1398
?AGKCommand1399@@3P6AMI@ZA DD 01H DUP (?)		; AGKCommand1399
?AGKCommand1400@@3P6AMI@ZA DD 01H DUP (?)		; AGKCommand1400
?AGKCommand1401@@3P6AMI@ZA DD 01H DUP (?)		; AGKCommand1401
?AGKCommand1402@@3P6AMI@ZA DD 01H DUP (?)		; AGKCommand1402
?AGKCommand1403@@3P6AMI@ZA DD 01H DUP (?)		; AGKCommand1403
?AGKCommand1404@@3P6AMI@ZA DD 01H DUP (?)		; AGKCommand1404
?AGKCommand1405@@3P6AMI@ZA DD 01H DUP (?)		; AGKCommand1405
?AGKCommand1406@@3P6AXH@ZA DD 01H DUP (?)		; AGKCommand1406
?AGKCommand1407@@3P6AXHHH@ZA DD 01H DUP (?)		; AGKCommand1407
?AGKCommand1408@@3P6AXHHH@ZA DD 01H DUP (?)		; AGKCommand1408
?AGKCommand1409@@3P6AXMM@ZA DD 01H DUP (?)		; AGKCommand1409
?AGKCommand1410@@3P6AHXZA DD 01H DUP (?)		; AGKCommand1410
?AGKCommand1411@@3P6AXH@ZA DD 01H DUP (?)		; AGKCommand1411
?AGKCommand1412@@3P6AXHHH@ZA DD 01H DUP (?)		; AGKCommand1412
?AGKCommand1413@@3P6AXHHH@ZA DD 01H DUP (?)		; AGKCommand1413
?AGKCommand1414@@3P6AXHHH@ZA DD 01H DUP (?)		; AGKCommand1414
?AGKCommand1415@@3P6AXMM@ZA DD 01H DUP (?)		; AGKCommand1415
?AGKCommand1416@@3P6AXH@ZA DD 01H DUP (?)		; AGKCommand1416
?AGKCommand1417@@3P6AXMM@ZA DD 01H DUP (?)		; AGKCommand1417
?AGKCommand1418@@3P6AIPBD0@ZA DD 01H DUP (?)		; AGKCommand1418
?AGKCommand1419@@3P6AXIPBD0@ZA DD 01H DUP (?)		; AGKCommand1419
?AGKCommand1420@@3P6AIPBD@ZA DD 01H DUP (?)		; AGKCommand1420
?AGKCommand1421@@3P6AXIPBD@ZA DD 01H DUP (?)		; AGKCommand1421
?AGKCommand1422@@3P6AIPBD@ZA DD 01H DUP (?)		; AGKCommand1422
?AGKCommand1423@@3P6AXIPBD@ZA DD 01H DUP (?)		; AGKCommand1423
?AGKCommand1424@@3P6AXIPBDMMMM@ZA DD 01H DUP (?)	; AGKCommand1424
?AGKCommand1425@@3P6AXIPBDIMMMM@ZA DD 01H DUP (?)	; AGKCommand1425
?AGKCommand1426@@3P6AXIMMM@ZA DD 01H DUP (?)		; AGKCommand1426
?AGKCommand1427@@3P6AXIMMMM@ZA DD 01H DUP (?)		; AGKCommand1427
?AGKCommand1428@@3P6AXIMMM@ZA DD 01H DUP (?)		; AGKCommand1428
?AGKCommand1429@@3P6AXIM@ZA DD 01H DUP (?)		; AGKCommand1429
?AGKCommand1430@@3P6AXIM@ZA DD 01H DUP (?)		; AGKCommand1430
?AGKCommand1431@@3P6AXIM@ZA DD 01H DUP (?)		; AGKCommand1431
?AGKCommand1432@@3P6AXIM@ZA DD 01H DUP (?)		; AGKCommand1432
?AGKCommand1433@@3P6AXIM@ZA DD 01H DUP (?)		; AGKCommand1433
?AGKCommand1434@@3P6AXIM@ZA DD 01H DUP (?)		; AGKCommand1434
?AGKCommand1435@@3P6AXIM@ZA DD 01H DUP (?)		; AGKCommand1435
?AGKCommand1436@@3P6AXIM@ZA DD 01H DUP (?)		; AGKCommand1436
?AGKCommand1437@@3P6AXIM@ZA DD 01H DUP (?)		; AGKCommand1437
?AGKCommand1438@@3P6AMI@ZA DD 01H DUP (?)		; AGKCommand1438
?AGKCommand1439@@3P6AMI@ZA DD 01H DUP (?)		; AGKCommand1439
?AGKCommand1440@@3P6AMI@ZA DD 01H DUP (?)		; AGKCommand1440
?AGKCommand1441@@3P6AMI@ZA DD 01H DUP (?)		; AGKCommand1441
?AGKCommand1442@@3P6AMI@ZA DD 01H DUP (?)		; AGKCommand1442
?AGKCommand1443@@3P6AMI@ZA DD 01H DUP (?)		; AGKCommand1443
?AGKCommand1444@@3P6AMI@ZA DD 01H DUP (?)		; AGKCommand1444
?AGKCommand1445@@3P6AMI@ZA DD 01H DUP (?)		; AGKCommand1445
?AGKCommand1446@@3P6AMI@ZA DD 01H DUP (?)		; AGKCommand1446
?AGKCommand1447@@3P6AMI@ZA DD 01H DUP (?)		; AGKCommand1447
?AGKCommand1448@@3P6AXIMMMM@ZA DD 01H DUP (?)		; AGKCommand1448
?AGKCommand1449@@3P6AXIMM@ZA DD 01H DUP (?)		; AGKCommand1449
?AGKCommand1450@@3P6AXIM@ZA DD 01H DUP (?)		; AGKCommand1450
?AGKCommand1451@@3P6AXIM@ZA DD 01H DUP (?)		; AGKCommand1451
?AGKCommand1452@@3P6AXIM@ZA DD 01H DUP (?)		; AGKCommand1452
?AGKCommand1453@@3P6AXIMMMM@ZA DD 01H DUP (?)		; AGKCommand1453
?AGKCommand1454@@3P6AXIH@ZA DD 01H DUP (?)		; AGKCommand1454
?AGKCommand1455@@3P6AMI@ZA DD 01H DUP (?)		; AGKCommand1455
?AGKCommand1456@@3P6AXIMMMMHHH@ZA DD 01H DUP (?)	; AGKCommand1456
?AGKCommand1457@@3P6AHI@ZA DD 01H DUP (?)		; AGKCommand1457
?AGKCommand1458@@3P6AXI@ZA DD 01H DUP (?)		; AGKCommand1458
?AGKCommand1459@@3P6AXXZA DD 01H DUP (?)		; AGKCommand1459
?AGKCommand1460@@3P6AXIMMM@ZA DD 01H DUP (?)		; AGKCommand1460
?AGKCommand1461@@3P6AXIHHH@ZA DD 01H DUP (?)		; AGKCommand1461
?AGKCommand1462@@3P6AXIM@ZA DD 01H DUP (?)		; AGKCommand1462
?AGKCommand1463@@3P6AXIH@ZA DD 01H DUP (?)		; AGKCommand1463
?AGKCommand1464@@3P6AXMMM@ZA DD 01H DUP (?)		; AGKCommand1464
?AGKCommand1465@@3P6AXHHH@ZA DD 01H DUP (?)		; AGKCommand1465
?AGKCommand1466@@3P6AXH@ZA DD 01H DUP (?)		; AGKCommand1466
?AGKCommand1467@@3P6AXHHH@ZA DD 01H DUP (?)		; AGKCommand1467
?AGKCommand1468@@3P6AXXZA DD 01H DUP (?)		; AGKCommand1468
?AGKCommand1469@@3P6AXM@ZA DD 01H DUP (?)		; AGKCommand1469
?AGKCommand1470@@3P6AXMMM@ZA DD 01H DUP (?)		; AGKCommand1470
?AGKCommand1471@@3P6AXI@ZA DD 01H DUP (?)		; AGKCommand1471
?AGKCommand1472@@3P6AXXZA DD 01H DUP (?)		; AGKCommand1472
?AGKCommand1473@@3P6AXXZA DD 01H DUP (?)		; AGKCommand1473
?AGKCommand1474@@3P6AXXZA DD 01H DUP (?)		; AGKCommand1474
?AGKCommand1475@@3P6AXXZA DD 01H DUP (?)		; AGKCommand1475
?AGKCommand1476@@3P6AHXZA DD 01H DUP (?)		; AGKCommand1476
?AGKCommand1477@@3P6AHXZA DD 01H DUP (?)		; AGKCommand1477
?AGKCommand1478@@3P6AHXZA DD 01H DUP (?)		; AGKCommand1478
?AGKCommand1479@@3P6AXI@ZA DD 01H DUP (?)		; AGKCommand1479
?AGKCommand1480@@3P6AXIMMM@ZA DD 01H DUP (?)		; AGKCommand1480
?AGKCommand1481@@3P6AXII@ZA DD 01H DUP (?)		; AGKCommand1481
?AGKCommand1482@@3P6AXI@ZA DD 01H DUP (?)		; AGKCommand1482
?AGKCommand1483@@3P6AXIM@ZA DD 01H DUP (?)		; AGKCommand1483
?AGKCommand1484@@3P6AXIH@ZA DD 01H DUP (?)		; AGKCommand1484
?AGKCommand1485@@3P6AXIHMM@ZA DD 01H DUP (?)		; AGKCommand1485
?AGKCommand1486@@3P6AXIH@ZA DD 01H DUP (?)		; AGKCommand1486
?AGKCommand1487@@3P6AXIHMM@ZA DD 01H DUP (?)		; AGKCommand1487
?AGKCommand1488@@3P6AXIH@ZA DD 01H DUP (?)		; AGKCommand1488
?AGKCommand1489@@3P6AXIHMMM@ZA DD 01H DUP (?)		; AGKCommand1489
?AGKCommand1490@@3P6AXIHI@ZA DD 01H DUP (?)		; AGKCommand1490
?AGKCommand1491@@3P6AXI@ZA DD 01H DUP (?)		; AGKCommand1491
?AGKCommand1492@@3P6AXI@ZA DD 01H DUP (?)		; AGKCommand1492
?AGKCommand1493@@3P6AXI@ZA DD 01H DUP (?)		; AGKCommand1493
?AGKCommand1494@@3P6AXI@ZA DD 01H DUP (?)		; AGKCommand1494
?AGKCommand1495@@3P6AXI@ZA DD 01H DUP (?)		; AGKCommand1495
?AGKCommand1496@@3P6AXI@ZA DD 01H DUP (?)		; AGKCommand1496
?AGKCommand1497@@3P6AXI@ZA DD 01H DUP (?)		; AGKCommand1497
?AGKCommand1498@@3P6AHMMMM@ZA DD 01H DUP (?)		; AGKCommand1498
?AGKCommand1499@@3P6AXIMMM@ZA DD 01H DUP (?)		; AGKCommand1499
?AGKCommand1500@@3P6AXIMMM@ZA DD 01H DUP (?)		; AGKCommand1500
?AGKCommand1501@@3P6AXI@ZA DD 01H DUP (?)		; AGKCommand1501
?AGKCommand1502@@3P6AXIHH@ZA DD 01H DUP (?)		; AGKCommand1502
?AGKCommand1503@@3P6AHI@ZA DD 01H DUP (?)		; AGKCommand1503
?AGKCommand1504@@3P6AHI@ZA DD 01H DUP (?)		; AGKCommand1504
?AGKCommand1505@@3P6AXIM@ZA DD 01H DUP (?)		; AGKCommand1505
?AGKCommand1506@@3P6AMI@ZA DD 01H DUP (?)		; AGKCommand1506
?AGKCommand1507@@3P6AXIH@ZA DD 01H DUP (?)		; AGKCommand1507
?AGKCommand1508@@3P6AXIM@ZA DD 01H DUP (?)		; AGKCommand1508
?AGKCommand1509@@3P6AMI@ZA DD 01H DUP (?)		; AGKCommand1509
?AGKCommand1510@@3P6AXIM@ZA DD 01H DUP (?)		; AGKCommand1510
?AGKCommand1511@@3P6AMI@ZA DD 01H DUP (?)		; AGKCommand1511
?AGKCommand1512@@3P6AXIH@ZA DD 01H DUP (?)		; AGKCommand1512
?AGKCommand1513@@3P6AXIM@ZA DD 01H DUP (?)		; AGKCommand1513
?AGKCommand1514@@3P6AXIMMMM@ZA DD 01H DUP (?)		; AGKCommand1514
?AGKCommand1515@@3P6AXIIM@ZA DD 01H DUP (?)		; AGKCommand1515
?AGKCommand1516@@3P6AMI@ZA DD 01H DUP (?)		; AGKCommand1516
?AGKCommand1517@@3P6AMI@ZA DD 01H DUP (?)		; AGKCommand1517
?AGKCommand1518@@3P6AMI@ZA DD 01H DUP (?)		; AGKCommand1518
?AGKCommand1519@@3P6AXIMMMM@ZA DD 01H DUP (?)		; AGKCommand1519
?AGKCommand1520@@3P6AXIIM@ZA DD 01H DUP (?)		; AGKCommand1520
?AGKCommand1521@@3P6AMI@ZA DD 01H DUP (?)		; AGKCommand1521
?AGKCommand1522@@3P6AMI@ZA DD 01H DUP (?)		; AGKCommand1522
?AGKCommand1523@@3P6AMI@ZA DD 01H DUP (?)		; AGKCommand1523
?AGKCommand1524@@3P6AXIMM@ZA DD 01H DUP (?)		; AGKCommand1524
?AGKCommand1525@@3P6AMI@ZA DD 01H DUP (?)		; AGKCommand1525
?AGKCommand1526@@3P6AMI@ZA DD 01H DUP (?)		; AGKCommand1526
?AGKCommand1527@@3P6AXIMM@ZA DD 01H DUP (?)		; AGKCommand1527
?AGKCommand1528@@3P6AMI@ZA DD 01H DUP (?)		; AGKCommand1528
?AGKCommand1529@@3P6AMI@ZA DD 01H DUP (?)		; AGKCommand1529
?AGKCommand1530@@3P6AXIM@ZA DD 01H DUP (?)		; AGKCommand1530
?AGKCommand1531@@3P6AXIM@ZA DD 01H DUP (?)		; AGKCommand1531
?AGKCommand1532@@3P6AMI@ZA DD 01H DUP (?)		; AGKCommand1532
?AGKCommand1533@@3P6AHI@ZA DD 01H DUP (?)		; AGKCommand1533
?AGKCommand1534@@3P6AMXZA DD 01H DUP (?)		; AGKCommand1534
?AGKCommand1535@@3P6AMXZA DD 01H DUP (?)		; AGKCommand1535
?AGKCommand1536@@3P6AMXZA DD 01H DUP (?)		; AGKCommand1536
?AGKCommand1537@@3P6AHH@ZA DD 01H DUP (?)		; AGKCommand1537
?AGKCommand1538@@3P6AHXZA DD 01H DUP (?)		; AGKCommand1538
?AGKCommand1539@@3P6AHXZA DD 01H DUP (?)		; AGKCommand1539
?AGKCommand1540@@3P6AHIIH@ZA DD 01H DUP (?)		; AGKCommand1540
?AGKCommand1541@@3P6AHIH@ZA DD 01H DUP (?)		; AGKCommand1541
?AGKCommand1542@@3P6AXIH@ZA DD 01H DUP (?)		; AGKCommand1542
?AGKCommand1543@@3P6AXI@ZA DD 01H DUP (?)		; AGKCommand1543
?AGKCommand1544@@3P6AHIIHHH@ZA DD 01H DUP (?)		; AGKCommand1544
?AGKCommand1545@@3P6AHIIHHH@ZA DD 01H DUP (?)		; AGKCommand1545
?AGKCommand1546@@3P6AHIIHH@ZA DD 01H DUP (?)		; AGKCommand1546
?AGKCommand1547@@3P6AHIIH@ZA DD 01H DUP (?)		; AGKCommand1547
?AGKCommand1548@@3P6AHIIHM@ZA DD 01H DUP (?)		; AGKCommand1548
?AGKCommand1549@@3P6AXIMM@ZA DD 01H DUP (?)		; AGKCommand1549
?AGKCommand1550@@3P6AXIMM@ZA DD 01H DUP (?)		; AGKCommand1550
?AGKCommand1551@@3P6AXIMMM@ZA DD 01H DUP (?)		; AGKCommand1551
?AGKCommand1552@@3P6AXIMM@ZA DD 01H DUP (?)		; AGKCommand1552
?AGKCommand1553@@3P6AXIM@ZA DD 01H DUP (?)		; AGKCommand1553
?AGKCommand1554@@3P6AXIH@ZA DD 01H DUP (?)		; AGKCommand1554
?AGKCommand1555@@3P6AHI@ZA DD 01H DUP (?)		; AGKCommand1555
?AGKCommand1556@@3P6AHI@ZA DD 01H DUP (?)		; AGKCommand1556
?AGKCommand1557@@3P6AHI@ZA DD 01H DUP (?)		; AGKCommand1557
?AGKCommand1558@@3P6AXI@ZA DD 01H DUP (?)		; AGKCommand1558
?AGKCommand1559@@3P6AXIH@ZA DD 01H DUP (?)		; AGKCommand1559
?AGKCommand1560@@3P6AXIM@ZA DD 01H DUP (?)		; AGKCommand1560
?AGKCommand1561@@3P6AXIM@ZA DD 01H DUP (?)		; AGKCommand1561
?AGKCommand1562@@3P6AXIH@ZA DD 01H DUP (?)		; AGKCommand1562
?AGKCommand1563@@3P6AXIM@ZA DD 01H DUP (?)		; AGKCommand1563
?AGKCommand1564@@3P6AXIH@ZA DD 01H DUP (?)		; AGKCommand1564
?AGKCommand1565@@3P6AXIH@ZA DD 01H DUP (?)		; AGKCommand1565
?AGKCommand1566@@3P6AXIM@ZA DD 01H DUP (?)		; AGKCommand1566
?AGKCommand1567@@3P6AXIM@ZA DD 01H DUP (?)		; AGKCommand1567
?AGKCommand1568@@3P6AXHHHH@ZA DD 01H DUP (?)		; AGKCommand1568
?AGKCommand1569@@3P6AXHHM@ZA DD 01H DUP (?)		; AGKCommand1569
?AGKCommand1570@@3P6AXHHHHH@ZA DD 01H DUP (?)		; AGKCommand1570
?AGKCommand1571@@3P6AXHHHHH@ZA DD 01H DUP (?)		; AGKCommand1571
?AGKCommand1572@@3P6AXHHHHH@ZA DD 01H DUP (?)		; AGKCommand1572
?AGKCommand1573@@3P6AHIPBD@ZA DD 01H DUP (?)		; AGKCommand1573
?AGKCommand1574@@3P6AHIPBD@ZA DD 01H DUP (?)		; AGKCommand1574
?AGKCommand1575@@3P6AHXZA DD 01H DUP (?)		; AGKCommand1575
?AGKCommand1576@@3P6AHMMM@ZA DD 01H DUP (?)		; AGKCommand1576
?AGKCommand1577@@3P6AXIMMM@ZA DD 01H DUP (?)		; AGKCommand1577
?AGKCommand1578@@3P6AXI@ZA DD 01H DUP (?)		; AGKCommand1578
?AGKCommand1579@@3P6AMI@ZA DD 01H DUP (?)		; AGKCommand1579
?AGKCommand1580@@3P6AMI@ZA DD 01H DUP (?)		; AGKCommand1580
?AGKCommand1581@@3P6AMI@ZA DD 01H DUP (?)		; AGKCommand1581
?AGKCommand1582@@3P6AMII@ZA DD 01H DUP (?)		; AGKCommand1582
?AGKCommand1583@@3P6AMI@ZA DD 01H DUP (?)		; AGKCommand1583
?AGKCommand1584@@3P6AMII@ZA DD 01H DUP (?)		; AGKCommand1584
?AGKCommand1585@@3P6AXIII@ZA DD 01H DUP (?)		; AGKCommand1585
?AGKCommand1586@@3P6AXIM@ZA DD 01H DUP (?)		; AGKCommand1586
?AGKCommand1587@@3P6AXII@ZA DD 01H DUP (?)		; AGKCommand1587
?AGKCommand1588@@3P6AHXZA DD 01H DUP (?)		; AGKCommand1588
?AGKCommand1589@@3P6AXI@ZA DD 01H DUP (?)		; AGKCommand1589
?AGKCommand1590@@3P6AHI@ZA DD 01H DUP (?)		; AGKCommand1590
?AGKCommand1591@@3P6AXIHHH@ZA DD 01H DUP (?)		; AGKCommand1591
?AGKCommand1592@@3P6AHIIHHH@ZA DD 01H DUP (?)		; AGKCommand1592
?AGKCommand1593@@3P6AHIM@ZA DD 01H DUP (?)		; AGKCommand1593
?AGKCommand1594@@3P6AHI@ZA DD 01H DUP (?)		; AGKCommand1594
?AGKCommand1595@@3P6AMI@ZA DD 01H DUP (?)		; AGKCommand1595
?AGKCommand1596@@3P6AHIMH@ZA DD 01H DUP (?)		; AGKCommand1596
?AGKCommand1597@@3P6AHIH@ZA DD 01H DUP (?)		; AGKCommand1597
?AGKCommand1598@@3P6AXIH@ZA DD 01H DUP (?)		; AGKCommand1598
?AGKCommand1599@@3P6AHI@ZA DD 01H DUP (?)		; AGKCommand1599
?AGKCommand1600@@3P6AXIHHM@ZA DD 01H DUP (?)		; AGKCommand1600
?AGKCommand1601@@3P6AHIIHHM@ZA DD 01H DUP (?)		; AGKCommand1601
?AGKCommand1602@@3P6AXIM@ZA DD 01H DUP (?)		; AGKCommand1602
?AGKCommand1603@@3P6AHIIMHH@ZA DD 01H DUP (?)		; AGKCommand1603
?AGKCommand1604@@3P6AXII@ZA DD 01H DUP (?)		; AGKCommand1604
?AGKCommand1605@@3P6AXIIIHMM@ZA DD 01H DUP (?)		; AGKCommand1605
?AGKCommand1606@@3P6AXIIIHH@ZA DD 01H DUP (?)		; AGKCommand1606
?AGKCommand1607@@3P6AXXZA DD 01H DUP (?)		; AGKCommand1607
?AGKCommand1608@@3P6AXI@ZA DD 01H DUP (?)		; AGKCommand1608
?AGKCommand1609@@3P6AHI@ZA DD 01H DUP (?)		; AGKCommand1609
?AGKCommand1610@@3P6AHI@ZA DD 01H DUP (?)		; AGKCommand1610
?AGKCommand1611@@3P6AHI@ZA DD 01H DUP (?)		; AGKCommand1611
?AGKCommand1612@@3P6AXIH@ZA DD 01H DUP (?)		; AGKCommand1612
?AGKCommand1613@@3P6AXIH@ZA DD 01H DUP (?)		; AGKCommand1613
?AGKCommand1614@@3P6AXMM@ZA DD 01H DUP (?)		; AGKCommand1614
?AGKCommand1615@@3P6AXMM@ZA DD 01H DUP (?)		; AGKCommand1615
?AGKCommand1616@@3P6AXM@ZA DD 01H DUP (?)		; AGKCommand1616
?AGKCommand1617@@3P6AXIH@ZA DD 01H DUP (?)		; AGKCommand1617
?AGKCommand1618@@3P6AXIHHHM@ZA DD 01H DUP (?)		; AGKCommand1618
?AGKCommand1619@@3P6AXI@ZA DD 01H DUP (?)		; AGKCommand1619
?AGKCommand1620@@3P6AHI@ZA DD 01H DUP (?)		; AGKCommand1620
?AGKCommand1621@@3P6AXIM@ZA DD 01H DUP (?)		; AGKCommand1621
?AGKCommand1622@@3P6AXIM@ZA DD 01H DUP (?)		; AGKCommand1622
?AGKCommand1623@@3P6AXIM@ZA DD 01H DUP (?)		; AGKCommand1623
?AGKCommand1624@@3P6AXIM@ZA DD 01H DUP (?)		; AGKCommand1624
?AGKCommand1625@@3P6AXIM@ZA DD 01H DUP (?)		; AGKCommand1625
?AGKCommand1626@@3P6AMI@ZA DD 01H DUP (?)		; AGKCommand1626
?AGKCommand1627@@3P6AMI@ZA DD 01H DUP (?)		; AGKCommand1627
?AGKCommand1628@@3P6AXIHM@ZA DD 01H DUP (?)		; AGKCommand1628
?AGKCommand1629@@3P6AXIM@ZA DD 01H DUP (?)		; AGKCommand1629
?AGKCommand1630@@3P6AXI@ZA DD 01H DUP (?)		; AGKCommand1630
?AGKCommand1631@@3P6AXI@ZA DD 01H DUP (?)		; AGKCommand1631
?AGKCommand1632@@3P6AXI@ZA DD 01H DUP (?)		; AGKCommand1632
?AGKCommand1633@@3P6AXIH@ZA DD 01H DUP (?)		; AGKCommand1633
?AGKCommand1634@@3P6AXIMMM@ZA DD 01H DUP (?)		; AGKCommand1634
?AGKCommand1635@@3P6AXHH@ZA DD 01H DUP (?)		; AGKCommand1635
?AGKCommand1636@@3P6AXHHH@ZA DD 01H DUP (?)		; AGKCommand1636
?AGKCommand1637@@3P6AXHHHH@ZA DD 01H DUP (?)		; AGKCommand1637
?AGKCommand1638@@3P6AXH@ZA DD 01H DUP (?)		; AGKCommand1638
?AGKCommand1639@@3P6AXXZA DD 01H DUP (?)		; AGKCommand1639
?AGKCommand1640@@3P6AXXZA DD 01H DUP (?)		; AGKCommand1640
?AGKCommand1641@@3P6AXXZA DD 01H DUP (?)		; AGKCommand1641
?AGKCommand1642@@3P6AXH@ZA DD 01H DUP (?)		; AGKCommand1642
?AGKCommand1643@@3P6AXHH@ZA DD 01H DUP (?)		; AGKCommand1643
?AGKCommand1644@@3P6APADXZA DD 01H DUP (?)		; AGKCommand1644
?AGKCommand1645@@3P6APADXZA DD 01H DUP (?)		; AGKCommand1645
?AGKCommand1646@@3P6APADXZA DD 01H DUP (?)		; AGKCommand1646
?AGKCommand1647@@3P6APADXZA DD 01H DUP (?)		; AGKCommand1647
?AGKCommand1648@@3P6APADXZA DD 01H DUP (?)		; AGKCommand1648
?AGKCommand1649@@3P6AXH@ZA DD 01H DUP (?)		; AGKCommand1649
?AGKCommand1650@@3P6AXPBD@ZA DD 01H DUP (?)		; AGKCommand1650
?AGKCommand1651@@3P6AXH@ZA DD 01H DUP (?)		; AGKCommand1651
?AGKCommand1652@@3P6AHXZA DD 01H DUP (?)		; AGKCommand1652
?AGKCommand1653@@3P6AXXZA DD 01H DUP (?)		; AGKCommand1653
?AGKCommand1654@@3P6AMXZA DD 01H DUP (?)		; AGKCommand1654
?AGKCommand1655@@3P6AXPBD@ZA DD 01H DUP (?)		; AGKCommand1655
?AGKCommand1656@@3P6AXI@ZA DD 01H DUP (?)		; AGKCommand1656
?AGKCommand1657@@3P6AXH@ZA DD 01H DUP (?)		; AGKCommand1657
?AGKCommand1658@@3P6AHXZA DD 01H DUP (?)		; AGKCommand1658
?AGKCommand1659@@3P6AHXZA DD 01H DUP (?)		; AGKCommand1659
?AGKCommand1660@@3P6AHXZA DD 01H DUP (?)		; AGKCommand1660
?AGKCommand1661@@3P6APADXZA DD 01H DUP (?)		; AGKCommand1661
?AGKCommand1662@@3P6AHXZA DD 01H DUP (?)		; AGKCommand1662
?AGKCommand1663@@3P6AMM@ZA DD 01H DUP (?)		; AGKCommand1663
?AGKCommand1664@@3P6AMM@ZA DD 01H DUP (?)		; AGKCommand1664
?AGKCommand1665@@3P6AMM@ZA DD 01H DUP (?)		; AGKCommand1665
?AGKCommand1666@@3P6AMM@ZA DD 01H DUP (?)		; AGKCommand1666
?AGKCommand1667@@3P6AMM@ZA DD 01H DUP (?)		; AGKCommand1667
?AGKCommand1668@@3P6AMM@ZA DD 01H DUP (?)		; AGKCommand1668
?AGKCommand1669@@3P6AMM@ZA DD 01H DUP (?)		; AGKCommand1669
?AGKCommand1670@@3P6AMM@ZA DD 01H DUP (?)		; AGKCommand1670
?AGKCommand1671@@3P6AMM@ZA DD 01H DUP (?)		; AGKCommand1671
?AGKCommand1672@@3P6AMMM@ZA DD 01H DUP (?)		; AGKCommand1672
?AGKCommand1673@@3P6AMM@ZA DD 01H DUP (?)		; AGKCommand1673
?AGKCommand1674@@3P6AMM@ZA DD 01H DUP (?)		; AGKCommand1674
?AGKCommand1675@@3P6AMM@ZA DD 01H DUP (?)		; AGKCommand1675
?AGKCommand1676@@3P6AMMM@ZA DD 01H DUP (?)		; AGKCommand1676
?AGKCommand1677@@3P6AHM@ZA DD 01H DUP (?)		; AGKCommand1677
?AGKCommand1678@@3P6AHM@ZA DD 01H DUP (?)		; AGKCommand1678
?AGKCommand1679@@3P6AHM@ZA DD 01H DUP (?)		; AGKCommand1679
?AGKCommand1680@@3P6AHM@ZA DD 01H DUP (?)		; AGKCommand1680
?AGKCommand1681@@3P6AMM@ZA DD 01H DUP (?)		; AGKCommand1681
?AGKCommand1682@@3P6AMM@ZA DD 01H DUP (?)		; AGKCommand1682
?AGKCommand1683@@3P6AHHH@ZA DD 01H DUP (?)		; AGKCommand1683
?AGKCommand1684@@3P6AMMM@ZA DD 01H DUP (?)		; AGKCommand1684
?AGKCommand1685@@3P6AMMM@ZA DD 01H DUP (?)		; AGKCommand1685
?AGKCommand1686@@3P6AMM@ZA DD 01H DUP (?)		; AGKCommand1686
?AGKCommand1687@@3P6AHXZA DD 01H DUP (?)		; AGKCommand1687
?AGKCommand1688@@3P6AHII@ZA DD 01H DUP (?)		; AGKCommand1688
?AGKCommand1689@@3P6AHI@ZA DD 01H DUP (?)		; AGKCommand1689
?AGKCommand1690@@3P6AXM@ZA DD 01H DUP (?)		; AGKCommand1690
?AGKCommand1691@@3P6AHPBD@ZA DD 01H DUP (?)		; AGKCommand1691
?AGKCommand1692@@3P6AXXZA DD 01H DUP (?)		; AGKCommand1692
?AGKCommand1693@@3P6AXMMMM@ZA DD 01H DUP (?)		; AGKCommand1693
?AGKCommand1694@@3P6AXI@ZA DD 01H DUP (?)		; AGKCommand1694
?AGKCommand1695@@3P6AXXZA DD 01H DUP (?)		; AGKCommand1695
?AGKCommand1696@@3P6AXXZA DD 01H DUP (?)		; AGKCommand1696
?AGKCommand1697@@3P6AXXZA DD 01H DUP (?)		; AGKCommand1697
?AGKCommand1698@@3P6AHXZA DD 01H DUP (?)		; AGKCommand1698
?AGKCommand1699@@3P6AMXZA DD 01H DUP (?)		; AGKCommand1699
?AGKCommand1700@@3P6AMXZA DD 01H DUP (?)		; AGKCommand1700
?AGKCommand1701@@3P6AXM@ZA DD 01H DUP (?)		; AGKCommand1701
?AGKCommand1702@@3P6AMXZA DD 01H DUP (?)		; AGKCommand1702
?AGKCommand1703@@3P6AMXZA DD 01H DUP (?)		; AGKCommand1703
?AGKCommand1704@@3P6AXM@ZA DD 01H DUP (?)		; AGKCommand1704
?AGKCommand1705@@3P6AXPBD@ZA DD 01H DUP (?)		; AGKCommand1705
?AGKCommand1706@@3P6APADXZA DD 01H DUP (?)		; AGKCommand1706
?AGKCommand1707@@3P6APADXZA DD 01H DUP (?)		; AGKCommand1707
?AGKCommand1708@@3P6APADXZA DD 01H DUP (?)		; AGKCommand1708
?AGKCommand1709@@3P6AHPBD@ZA DD 01H DUP (?)		; AGKCommand1709
?AGKCommand1710@@3P6AHPBD@ZA DD 01H DUP (?)		; AGKCommand1710
?AGKCommand1711@@3P6AXPBD@ZA DD 01H DUP (?)		; AGKCommand1711
?AGKCommand1712@@3P6AHXZA DD 01H DUP (?)		; AGKCommand1712
?AGKCommand1713@@3P6AHXZA DD 01H DUP (?)		; AGKCommand1713
?AGKCommand1714@@3P6AHXZA DD 01H DUP (?)		; AGKCommand1714
?AGKCommand1715@@3P6AHXZA DD 01H DUP (?)		; AGKCommand1715
?AGKCommand1716@@3P6AHXZA DD 01H DUP (?)		; AGKCommand1716
?AGKCommand1717@@3P6AXH@ZA DD 01H DUP (?)		; AGKCommand1717
?AGKCommand1718@@3P6AXMM@ZA DD 01H DUP (?)		; AGKCommand1718
?AGKCommand1719@@3P6AHXZA DD 01H DUP (?)		; AGKCommand1719
?AGKCommand1720@@3P6AHXZA DD 01H DUP (?)		; AGKCommand1720
?AGKCommand1721@@3P6APADXZA DD 01H DUP (?)		; AGKCommand1721
?AGKCommand1722@@3P6APADXZA DD 01H DUP (?)		; AGKCommand1722
?AGKCommand1723@@3P6AXPBD@ZA DD 01H DUP (?)		; AGKCommand1723
?AGKCommand1724@@3P6AIPBD0@ZA DD 01H DUP (?)		; AGKCommand1724
?AGKCommand1725@@3P6AII@ZA DD 01H DUP (?)		; AGKCommand1725
?AGKCommand1726@@3P6AXI@ZA DD 01H DUP (?)		; AGKCommand1726
?AGKCommand1727@@3P6AXPBD@ZA DD 01H DUP (?)		; AGKCommand1727
?AGKCommand1728@@3P6AXPBD@ZA DD 01H DUP (?)		; AGKCommand1728
?AGKCommand1729@@3P6AXPBD@ZA DD 01H DUP (?)		; AGKCommand1729
?AGKCommand1730@@3P6AXPBD0@ZA DD 01H DUP (?)		; AGKCommand1730
?AGKCommand1731@@3P6AXXZA DD 01H DUP (?)		; AGKCommand1731
?AGKCommand1732@@3P6AHXZA DD 01H DUP (?)		; AGKCommand1732
?AGKCommand1733@@3P6AXPBD0@ZA DD 01H DUP (?)		; AGKCommand1733
?AGKCommand1734@@3P6AHXZA DD 01H DUP (?)		; AGKCommand1734
?AGKCommand1735@@3P6APADXZA DD 01H DUP (?)		; AGKCommand1735
?AGKCommand1736@@3P6AHXZA DD 01H DUP (?)		; AGKCommand1736
?AGKCommand1737@@3P6AXH@ZA DD 01H DUP (?)		; AGKCommand1737
?AGKCommand1738@@3P6AXPBD@ZA DD 01H DUP (?)		; AGKCommand1738
?AGKCommand1739@@3P6AHXZA DD 01H DUP (?)		; AGKCommand1739
?AGKCommand1740@@3P6AXXZA DD 01H DUP (?)		; AGKCommand1740
?AGKCommand1741@@3P6AXXZA DD 01H DUP (?)		; AGKCommand1741
?AGKCommand1742@@3P6AMXZA DD 01H DUP (?)		; AGKCommand1742
?AGKCommand1743@@3P6AMXZA DD 01H DUP (?)		; AGKCommand1743
?AGKCommand1744@@3P6AMXZA DD 01H DUP (?)		; AGKCommand1744
?AGKCommand1745@@3P6AHXZA DD 01H DUP (?)		; AGKCommand1745
?AGKCommand1746@@3P6AXXZA DD 01H DUP (?)		; AGKCommand1746
?AGKCommand1747@@3P6AXXZA DD 01H DUP (?)		; AGKCommand1747
?AGKCommand1748@@3P6AHXZA DD 01H DUP (?)		; AGKCommand1748
?AGKCommand1749@@3P6APADXZA DD 01H DUP (?)		; AGKCommand1749
?AGKCommand1750@@3P6APADXZA DD 01H DUP (?)		; AGKCommand1750
?AGKCommand1751@@3P6AXHPBD@ZA DD 01H DUP (?)		; AGKCommand1751
?AGKCommand1752@@3P6AXPBD@ZA DD 01H DUP (?)		; AGKCommand1752
?AGKCommand1753@@3P6AXPBDH@ZA DD 01H DUP (?)		; AGKCommand1753
?AGKCommand1754@@3P6AXXZA DD 01H DUP (?)		; AGKCommand1754
?AGKCommand1755@@3P6AXXZA DD 01H DUP (?)		; AGKCommand1755
?AGKCommand1756@@3P6AXPBD@ZA DD 01H DUP (?)		; AGKCommand1756
?AGKCommand1757@@3P6AXPBD0@ZA DD 01H DUP (?)		; AGKCommand1757
?AGKCommand1758@@3P6APADPBD0@ZA DD 01H DUP (?)		; AGKCommand1758
?AGKCommand1759@@3P6AXPBD@ZA DD 01H DUP (?)		; AGKCommand1759
?AGKCommand1760@@3P6AXXZA DD 01H DUP (?)		; AGKCommand1760
?AGKCommand1761@@3P6AXPBD@ZA DD 01H DUP (?)		; AGKCommand1761
?AGKCommand1762@@3P6AIXZA DD 01H DUP (?)		; AGKCommand1762
?AGKCommand1763@@3P6AXH@ZA DD 01H DUP (?)		; AGKCommand1763
?AGKCommand1764@@3P6AXXZA DD 01H DUP (?)		; AGKCommand1764
?AGKCommand1765@@3P6AXI@ZA DD 01H DUP (?)		; AGKCommand1765
?AGKCommand1766@@3P6AXII@ZA DD 01H DUP (?)		; AGKCommand1766
?AGKCommand1767@@3P6AXHH@ZA DD 01H DUP (?)		; AGKCommand1767
?AGKCommand1768@@3P6AXHH@ZA DD 01H DUP (?)		; AGKCommand1768
?AGKCommand1769@@3P6AHH@ZA DD 01H DUP (?)		; AGKCommand1769
?AGKCommand1770@@3P6AHH@ZA DD 01H DUP (?)		; AGKCommand1770
?AGKCommand1771@@3P6AHXZA DD 01H DUP (?)		; AGKCommand1771
?AGKCommand1772@@3P6AXH@ZA DD 01H DUP (?)		; AGKCommand1772
?AGKCommand1773@@3P6AHXZA DD 01H DUP (?)		; AGKCommand1773
?AGKCommand1774@@3P6AXHH@ZA DD 01H DUP (?)		; AGKCommand1774
?AGKCommand1775@@3P6AXM@ZA DD 01H DUP (?)		; AGKCommand1775
?AGKCommand1776@@3P6AXM@ZA DD 01H DUP (?)		; AGKCommand1776
?AGKCommand1777@@3P6AXM@ZA DD 01H DUP (?)		; AGKCommand1777
?AGKCommand1778@@3P6AXH@ZA DD 01H DUP (?)		; AGKCommand1778
?AGKCommand1779@@3P6AIXZA DD 01H DUP (?)		; AGKCommand1779
?AGKCommand1780@@3P6AIPBD0@ZA DD 01H DUP (?)		; AGKCommand1780
?AGKCommand1781@@3P6AXIPBD0@ZA DD 01H DUP (?)		; AGKCommand1781
?AGKCommand1782@@3P6AXIMMM@ZA DD 01H DUP (?)		; AGKCommand1782
?AGKCommand1783@@3P6AIMMM@ZA DD 01H DUP (?)		; AGKCommand1783
?AGKCommand1784@@3P6AHI@ZA DD 01H DUP (?)		; AGKCommand1784
?AGKCommand1785@@3P6AXI@ZA DD 01H DUP (?)		; AGKCommand1785
?AGKCommand1786@@3P6AXIMMM@ZA DD 01H DUP (?)		; AGKCommand1786
?AGKCommand1787@@3P6AXIM@ZA DD 01H DUP (?)		; AGKCommand1787
?AGKCommand1788@@3P6AXIMMMMMM@ZA DD 01H DUP (?)		; AGKCommand1788
?AGKCommand1789@@3P6AXIMMMM@ZA DD 01H DUP (?)		; AGKCommand1789
?AGKCommand1790@@3P6AXIMM@ZA DD 01H DUP (?)		; AGKCommand1790
?AGKCommand1791@@3P6AXIMM@ZA DD 01H DUP (?)		; AGKCommand1791
?AGKCommand1792@@3P6AXIM@ZA DD 01H DUP (?)		; AGKCommand1792
?AGKCommand1793@@3P6AXIM@ZA DD 01H DUP (?)		; AGKCommand1793
?AGKCommand1794@@3P6AXIH@ZA DD 01H DUP (?)		; AGKCommand1794
?AGKCommand1795@@3P6AXI@ZA DD 01H DUP (?)		; AGKCommand1795
?AGKCommand1796@@3P6AXII@ZA DD 01H DUP (?)		; AGKCommand1796
?AGKCommand1797@@3P6AXIH@ZA DD 01H DUP (?)		; AGKCommand1797
?AGKCommand1798@@3P6AXIH@ZA DD 01H DUP (?)		; AGKCommand1798
?AGKCommand1799@@3P6AXIH@ZA DD 01H DUP (?)		; AGKCommand1799
?AGKCommand1800@@3P6AXIH@ZA DD 01H DUP (?)		; AGKCommand1800
?AGKCommand1801@@3P6AMI@ZA DD 01H DUP (?)		; AGKCommand1801
?AGKCommand1802@@3P6AMI@ZA DD 01H DUP (?)		; AGKCommand1802
?AGKCommand1803@@3P6AMI@ZA DD 01H DUP (?)		; AGKCommand1803
?AGKCommand1804@@3P6AHI@ZA DD 01H DUP (?)		; AGKCommand1804
?AGKCommand1805@@3P6AHI@ZA DD 01H DUP (?)		; AGKCommand1805
?AGKCommand1806@@3P6AMI@ZA DD 01H DUP (?)		; AGKCommand1806
?AGKCommand1807@@3P6AMI@ZA DD 01H DUP (?)		; AGKCommand1807
?AGKCommand1808@@3P6AMI@ZA DD 01H DUP (?)		; AGKCommand1808
?AGKCommand1809@@3P6AMI@ZA DD 01H DUP (?)		; AGKCommand1809
?AGKCommand1810@@3P6AMI@ZA DD 01H DUP (?)		; AGKCommand1810
?AGKCommand1811@@3P6AMI@ZA DD 01H DUP (?)		; AGKCommand1811
?AGKCommand1812@@3P6AMI@ZA DD 01H DUP (?)		; AGKCommand1812
?AGKCommand1813@@3P6AMI@ZA DD 01H DUP (?)		; AGKCommand1813
?AGKCommand1814@@3P6AHI@ZA DD 01H DUP (?)		; AGKCommand1814
?AGKCommand1815@@3P6AXIMMMMM@ZA DD 01H DUP (?)		; AGKCommand1815
?AGKCommand1816@@3P6AXI@ZA DD 01H DUP (?)		; AGKCommand1816
?AGKCommand1817@@3P6AXIMIIII@ZA DD 01H DUP (?)		; AGKCommand1817
?AGKCommand1818@@3P6AXI@ZA DD 01H DUP (?)		; AGKCommand1818
?AGKCommand1819@@3P6AXIMM@ZA DD 01H DUP (?)		; AGKCommand1819
?AGKCommand1820@@3P6AXI@ZA DD 01H DUP (?)		; AGKCommand1820
?AGKCommand1821@@3P6AXIM@ZA DD 01H DUP (?)		; AGKCommand1821
?AGKCommand1822@@3P6AXIMMM@ZA DD 01H DUP (?)		; AGKCommand1822
?AGKCommand1823@@3P6AXIIHHHH@ZA DD 01H DUP (?)		; AGKCommand1823
?AGKCommand1824@@3P6AHII@ZA DD 01H DUP (?)		; AGKCommand1824
?AGKCommand1825@@3P6AHII@ZA DD 01H DUP (?)		; AGKCommand1825
?AGKCommand1826@@3P6AHII@ZA DD 01H DUP (?)		; AGKCommand1826
?AGKCommand1827@@3P6AHII@ZA DD 01H DUP (?)		; AGKCommand1827
?AGKCommand1828@@3P6AXIII@ZA DD 01H DUP (?)		; AGKCommand1828
?AGKCommand1829@@3P6AXII@ZA DD 01H DUP (?)		; AGKCommand1829
?AGKCommand1830@@3P6AXIMM@ZA DD 01H DUP (?)		; AGKCommand1830
?AGKCommand1831@@3P6AXIIMM@ZA DD 01H DUP (?)		; AGKCommand1831
?AGKCommand1832@@3P6APAEI@ZA DD 01H DUP (?)		; AGKCommand1832
?AGKCommand1833@@3P6AXPBDH@ZA DD 01H DUP (?)		; AGKCommand1833
?AGKCommand1834@@3P6AXXZA DD 01H DUP (?)		; AGKCommand1834
?AGKCommand1835@@3P6AHXZA DD 01H DUP (?)		; AGKCommand1835
?AGKCommand1836@@3P6AXI@ZA DD 01H DUP (?)		; AGKCommand1836
?AGKCommand1837@@3P6AXPBD@ZA DD 01H DUP (?)		; AGKCommand1837
?AGKCommand1838@@3P6AHXZA DD 01H DUP (?)		; AGKCommand1838
?AGKCommand1839@@3P6AXPBD@ZA DD 01H DUP (?)		; AGKCommand1839
?AGKCommand1840@@3P6APADXZA DD 01H DUP (?)		; AGKCommand1840
?AGKCommand1841@@3P6AXXZA DD 01H DUP (?)		; AGKCommand1841
?AGKCommand1842@@3P6AHXZA DD 01H DUP (?)		; AGKCommand1842
?AGKCommand1843@@3P6AXPBD@ZA DD 01H DUP (?)		; AGKCommand1843
?AGKCommand1844@@3P6AXM@ZA DD 01H DUP (?)		; AGKCommand1844
?AGKCommand1845@@3P6AXPBD@ZA DD 01H DUP (?)		; AGKCommand1845
?AGKCommand1846@@3P6AHXZA DD 01H DUP (?)		; AGKCommand1846
?AGKCommand1847@@3P6AXXZA DD 01H DUP (?)		; AGKCommand1847
?AGKCommand1848@@3P6AHI@ZA DD 01H DUP (?)		; AGKCommand1848
?AGKCommand1849@@3P6AXIHH@ZA DD 01H DUP (?)		; AGKCommand1849
?AGKCommand1850@@3P6AXIMMMMMH@ZA DD 01H DUP (?)		; AGKCommand1850
?AGKCommand1851@@3P6AXIMMMH@ZA DD 01H DUP (?)		; AGKCommand1851
?AGKCommand1852@@3P6AXIIIMMH@ZA DD 01H DUP (?)		; AGKCommand1852
?AGKCommand1853@@3P6AXIIIHMMH@ZA DD 01H DUP (?)		; AGKCommand1853
?AGKCommand1854@@3P6AXIIIHMM@ZA DD 01H DUP (?)		; AGKCommand1854
?AGKCommand1855@@3P6AHI@ZA DD 01H DUP (?)		; AGKCommand1855
?AGKCommand1856@@3P6AHIH@ZA DD 01H DUP (?)		; AGKCommand1856
?AGKCommand1857@@3P6AMIHH@ZA DD 01H DUP (?)		; AGKCommand1857
?AGKCommand1858@@3P6AMIHH@ZA DD 01H DUP (?)		; AGKCommand1858
?AGKCommand1859@@3P6AMI@ZA DD 01H DUP (?)		; AGKCommand1859
?AGKCommand1860@@3P6AMI@ZA DD 01H DUP (?)		; AGKCommand1860
?AGKCommand1861@@3P6AXIMH@ZA DD 01H DUP (?)		; AGKCommand1861
?AGKCommand1862@@3P6AXIMH@ZA DD 01H DUP (?)		; AGKCommand1862
?AGKCommand1863@@3P6AXIMH@ZA DD 01H DUP (?)		; AGKCommand1863
?AGKCommand1864@@3P6AXIHH@ZA DD 01H DUP (?)		; AGKCommand1864
?AGKCommand1865@@3P6AXIHH@ZA DD 01H DUP (?)		; AGKCommand1865
?AGKCommand1866@@3P6AXIIH@ZA DD 01H DUP (?)		; AGKCommand1866
?AGKCommand1867@@3P6AXIIHH@ZA DD 01H DUP (?)		; AGKCommand1867
?AGKCommand1868@@3P6AXIIH@ZA DD 01H DUP (?)		; AGKCommand1868
?AGKCommand1869@@3P6AXIIHH@ZA DD 01H DUP (?)		; AGKCommand1869
?AGKCommand1870@@3P6AXIIIMMMMMH@ZA DD 01H DUP (?)	; AGKCommand1870
?AGKCommand1871@@3P6AIIIMMMMMH@ZA DD 01H DUP (?)	; AGKCommand1871
?AGKCommand1872@@3P6AXIM@ZA DD 01H DUP (?)		; AGKCommand1872
?AGKCommand1873@@3P6AXIMM@ZA DD 01H DUP (?)		; AGKCommand1873
?AGKCommand1874@@3P6AXI@ZA DD 01H DUP (?)		; AGKCommand1874
?AGKCommand1875@@3P6AXI@ZA DD 01H DUP (?)		; AGKCommand1875
?AGKCommand1876@@3P6AXII@ZA DD 01H DUP (?)		; AGKCommand1876
?AGKCommand1877@@3P6AXII@ZA DD 01H DUP (?)		; AGKCommand1877
?AGKCommand1878@@3P6AXII@ZA DD 01H DUP (?)		; AGKCommand1878
?AGKCommand1879@@3P6AXII@ZA DD 01H DUP (?)		; AGKCommand1879
?AGKCommand1880@@3P6AXIII@ZA DD 01H DUP (?)		; AGKCommand1880
?AGKCommand1881@@3P6AXIII@ZA DD 01H DUP (?)		; AGKCommand1881
?AGKCommand1882@@3P6AXII@ZA DD 01H DUP (?)		; AGKCommand1882
?AGKCommand1883@@3P6AXII@ZA DD 01H DUP (?)		; AGKCommand1883
?AGKCommand1884@@3P6AXII@ZA DD 01H DUP (?)		; AGKCommand1884
?AGKCommand1885@@3P6AXII@ZA DD 01H DUP (?)		; AGKCommand1885
?AGKCommand1886@@3P6AHI@ZA DD 01H DUP (?)		; AGKCommand1886
?AGKCommand1887@@3P6AXIHH@ZA DD 01H DUP (?)		; AGKCommand1887
?AGKCommand1888@@3P6AHI@ZA DD 01H DUP (?)		; AGKCommand1888
?AGKCommand1889@@3P6AHI@ZA DD 01H DUP (?)		; AGKCommand1889
?AGKCommand1890@@3P6AXPBD@ZA DD 01H DUP (?)		; AGKCommand1890
?AGKCommand1891@@3P6AHXZA DD 01H DUP (?)		; AGKCommand1891
?AGKCommand1892@@3P6AHXZA DD 01H DUP (?)		; AGKCommand1892
?AGKCommand1893@@3P6APADPBD0@ZA DD 01H DUP (?)		; AGKCommand1893
?AGKCommand1894@@3P6AXPBD0@ZA DD 01H DUP (?)		; AGKCommand1894
?AGKCommand1895@@3P6AXPBD@ZA DD 01H DUP (?)		; AGKCommand1895
?AGKCommand1896@@3P6AHXZA DD 01H DUP (?)		; AGKCommand1896
?AGKCommand1897@@3P6AHPBD@ZA DD 01H DUP (?)		; AGKCommand1897
?AGKCommand1898@@3P6AHPBD@ZA DD 01H DUP (?)		; AGKCommand1898
?AGKCommand1899@@3P6AHPBD@ZA DD 01H DUP (?)		; AGKCommand1899
?AGKCommand1900@@3P6AXPBD@ZA DD 01H DUP (?)		; AGKCommand1900
?AGKCommand1901@@3P6AXI@ZA DD 01H DUP (?)		; AGKCommand1901
?AGKCommand1902@@3P6AXMMM@ZA DD 01H DUP (?)		; AGKCommand1902
?AGKCommand1903@@3P6AXXZA DD 01H DUP (?)		; AGKCommand1903
?AGKCommand1904@@3P6AHXZA DD 01H DUP (?)		; AGKCommand1904
?AGKCommand1905@@3P6AXXZA DD 01H DUP (?)		; AGKCommand1905
?AGKCommand1906@@3P6AXXZA DD 01H DUP (?)		; AGKCommand1906
?AGKCommand1907@@3P6AXXZA DD 01H DUP (?)		; AGKCommand1907
?AGKCommand1908@@3P6AXH@ZA DD 01H DUP (?)		; AGKCommand1908
?AGKCommand1909@@3P6AXH@ZA DD 01H DUP (?)		; AGKCommand1909
?AGKCommand1910@@3P6AMXZA DD 01H DUP (?)		; AGKCommand1910
?AGKCommand1911@@3P6AHMM@ZA DD 01H DUP (?)		; AGKCommand1911
?AGKCommand1912@@3P6AMH@ZA DD 01H DUP (?)		; AGKCommand1912
?AGKCommand1913@@3P6AMH@ZA DD 01H DUP (?)		; AGKCommand1913
?AGKCommand1914@@3P6AMH@ZA DD 01H DUP (?)		; AGKCommand1914
?AGKCommand1915@@3P6AMH@ZA DD 01H DUP (?)		; AGKCommand1915
?AGKCommand1916@@3P6AMH@ZA DD 01H DUP (?)		; AGKCommand1916
?AGKCommand1917@@3P6AMH@ZA DD 01H DUP (?)		; AGKCommand1917
?AGKCommand1918@@3P6AHH@ZA DD 01H DUP (?)		; AGKCommand1918
?AGKCommand1919@@3P6AXXZA DD 01H DUP (?)		; AGKCommand1919
?AGKCommand1920@@3P6AHH@ZA DD 01H DUP (?)		; AGKCommand1920
?AGKCommand1921@@3P6AMH@ZA DD 01H DUP (?)		; AGKCommand1921
?AGKCommand1922@@3P6AMH@ZA DD 01H DUP (?)		; AGKCommand1922
?AGKCommand1923@@3P6AMH@ZA DD 01H DUP (?)		; AGKCommand1923
?AGKCommand1924@@3P6AMH@ZA DD 01H DUP (?)		; AGKCommand1924
?AGKCommand1925@@3P6AMH@ZA DD 01H DUP (?)		; AGKCommand1925
?AGKCommand1926@@3P6AMH@ZA DD 01H DUP (?)		; AGKCommand1926
?AGKCommand1927@@3P6AMH@ZA DD 01H DUP (?)		; AGKCommand1927
?AGKCommand1928@@3P6AMH@ZA DD 01H DUP (?)		; AGKCommand1928
?AGKCommand1929@@3P6AXXZA DD 01H DUP (?)		; AGKCommand1929
?AGKCommand1930@@3P6AHH@ZA DD 01H DUP (?)		; AGKCommand1930
?AGKCommand1931@@3P6AHH@ZA DD 01H DUP (?)		; AGKCommand1931
?AGKCommand1932@@3P6AXHH@ZA DD 01H DUP (?)		; AGKCommand1932
?AGKCommand1933@@3P6AHH@ZA DD 01H DUP (?)		; AGKCommand1933
?AGKCommand1934@@3P6AXH@ZA DD 01H DUP (?)		; AGKCommand1934
?AGKCommand1935@@3P6AXI@ZA DD 01H DUP (?)		; AGKCommand1935
?AGKCommand1936@@3P6AXIIHH@ZA DD 01H DUP (?)		; AGKCommand1936
?AGKCommand1937@@3P6AXH@ZA DD 01H DUP (?)		; AGKCommand1937
?AGKCommand1938@@3P6AXIMMM@ZA DD 01H DUP (?)		; AGKCommand1938
?AGKCommand1939@@3P6AXPBDH@ZA DD 01H DUP (?)		; AGKCommand1939
?AGKCommand1940@@3P6AXH@ZA DD 01H DUP (?)		; AGKCommand1940
?AGKCommand1941@@3P6AXPBD0@ZA DD 01H DUP (?)		; AGKCommand1941
?AGKCommand1942@@3P6AHXZA DD 01H DUP (?)		; AGKCommand1942
?AGKCommand1943@@3P6AXXZA DD 01H DUP (?)		; AGKCommand1943
?AGKCommand1944@@3P6AHXZA DD 01H DUP (?)		; AGKCommand1944
?AGKCommand1945@@3P6AHXZA DD 01H DUP (?)		; AGKCommand1945
?AGKCommand1946@@3P6APADH@ZA DD 01H DUP (?)		; AGKCommand1946
?AGKCommand1947@@3P6APADH@ZA DD 01H DUP (?)		; AGKCommand1947
?AGKCommand1948@@3P6AXH@ZA DD 01H DUP (?)		; AGKCommand1948
?AGKCommand1949@@3P6AXIPBD0@ZA DD 01H DUP (?)		; AGKCommand1949
?AGKCommand1950@@3P6AXIPBD@ZA DD 01H DUP (?)		; AGKCommand1950
?AGKCommand1951@@3P6AHI@ZA DD 01H DUP (?)		; AGKCommand1951
?AGKCommand1952@@3P6APADH@ZA DD 01H DUP (?)		; AGKCommand1952
?AGKCommand1953@@3P6AXPBD@ZA DD 01H DUP (?)		; AGKCommand1953
?AGKCommand1954@@3P6AHI@ZA DD 01H DUP (?)		; AGKCommand1954
?AGKCommand1955@@3P6AHI@ZA DD 01H DUP (?)		; AGKCommand1955
?AGKCommand1956@@3P6AHI@ZA DD 01H DUP (?)		; AGKCommand1956
?AGKCommand1957@@3P6AXI@ZA DD 01H DUP (?)		; AGKCommand1957
?AGKCommand1958@@3P6AXI@ZA DD 01H DUP (?)		; AGKCommand1958
?AGKCommand1959@@3P6AXPBD@ZA DD 01H DUP (?)		; AGKCommand1959
?AGKCommand1960@@3P6APADXZA DD 01H DUP (?)		; AGKCommand1960
?AGKCommand1961@@3P6AXIH@ZA DD 01H DUP (?)		; AGKCommand1961
?AGKCommand1962@@3P6AHXZA DD 01H DUP (?)		; AGKCommand1962
?AGKCommand1963@@3P6AHI@ZA DD 01H DUP (?)		; AGKCommand1963
?AGKCommand1964@@3P6AHI@ZA DD 01H DUP (?)		; AGKCommand1964
?AGKCommand1965@@3P6APADXZA DD 01H DUP (?)		; AGKCommand1965
?AGKCommand1966@@3P6AHXZA DD 01H DUP (?)		; AGKCommand1966
?AGKCommand1967@@3P6AHII@ZA DD 01H DUP (?)		; AGKCommand1967
?AGKCommand1968@@3P6AHII@ZA DD 01H DUP (?)		; AGKCommand1968
?AGKCommand1969@@3P6AII@ZA DD 01H DUP (?)		; AGKCommand1969
?AGKCommand1970@@3P6APADXZA DD 01H DUP (?)		; AGKCommand1970
?AGKCommand1971@@3P6AXIH@ZA DD 01H DUP (?)		; AGKCommand1971
?AGKCommand1972@@3P6AHH@ZA DD 01H DUP (?)		; AGKCommand1972
?AGKCommand1973@@3P6AHH@ZA DD 01H DUP (?)		; AGKCommand1973
?AGKCommand1974@@3P6AHH@ZA DD 01H DUP (?)		; AGKCommand1974
?AGKCommand1975@@3P6AHH@ZA DD 01H DUP (?)		; AGKCommand1975
?AGKCommand1976@@3P6AXXZA DD 01H DUP (?)		; AGKCommand1976
?AGKCommand1977@@3P6AXPBD00@ZA DD 01H DUP (?)		; AGKCommand1977
?AGKCommand1978@@3P6AIPBDMMMHHHH@ZA DD 01H DUP (?)	; AGKCommand1978
?AGKCommand1979@@3P6AXIPBDMMMHHHH@ZA DD 01H DUP (?)	; AGKCommand1979
?AGKCommand1980@@3P6AXIHH@ZA DD 01H DUP (?)		; AGKCommand1980
?AGKCommand1981@@3P6AXIIH@ZA DD 01H DUP (?)		; AGKCommand1981
?AGKCommand1982@@3P6APADII@ZA DD 01H DUP (?)		; AGKCommand1982
?AGKCommand1983@@3P6AII@ZA DD 01H DUP (?)		; AGKCommand1983
?AGKCommand1984@@3P6APADI@ZA DD 01H DUP (?)		; AGKCommand1984
?AGKCommand1985@@3P6AXPBD0M@ZA DD 01H DUP (?)		; AGKCommand1985
?AGKCommand1986@@3P6AXPBD@ZA DD 01H DUP (?)		; AGKCommand1986
?AGKCommand1987@@3P6AHI@ZA DD 01H DUP (?)		; AGKCommand1987
?AGKCommand1988@@3P6AIPBDH@ZA DD 01H DUP (?)		; AGKCommand1988
?AGKCommand1989@@3P6AHIPBDH@ZA DD 01H DUP (?)		; AGKCommand1989
?AGKCommand1990@@3P6AXIIPBDH@ZA DD 01H DUP (?)		; AGKCommand1990
?AGKCommand1991@@3P6AII@ZA DD 01H DUP (?)		; AGKCommand1991
?AGKCommand1992@@3P6AXI@ZA DD 01H DUP (?)		; AGKCommand1992
?AGKCommand1993@@3P6AXPBD00@ZA DD 01H DUP (?)		; AGKCommand1993
?AGKCommand1994@@3P6AMXZA DD 01H DUP (?)		; AGKCommand1994
?AGKCommand1995@@3P6AHXZA DD 01H DUP (?)		; AGKCommand1995
?AGKCommand1996@@3P6AHXZA DD 01H DUP (?)		; AGKCommand1996
?AGKCommand1997@@3P6AHXZA DD 01H DUP (?)		; AGKCommand1997
?AGKCommand1998@@3P6AXXZA DD 01H DUP (?)		; AGKCommand1998
?AGKCommand1999@@3P6AXXZA DD 01H DUP (?)		; AGKCommand1999
?AGKCommand2000@@3P6AIPBD@ZA DD 01H DUP (?)		; AGKCommand2000
?AGKCommand2001@@3P6AXIIH@ZA DD 01H DUP (?)		; AGKCommand2001
?AGKCommand2002@@3P6AXIPBDIM@ZA DD 01H DUP (?)		; AGKCommand2002
?AGKCommand2003@@3P6AXIPBDIMM@ZA DD 01H DUP (?)		; AGKCommand2003
?AGKCommand2004@@3P6AXIPBDIMMM@ZA DD 01H DUP (?)	; AGKCommand2004
?AGKCommand2005@@3P6AXIPBDIMMMM@ZA DD 01H DUP (?)	; AGKCommand2005
?AGKCommand2006@@3P6AXI@ZA DD 01H DUP (?)		; AGKCommand2006
?AGKCommand2007@@3P6AXIPBDIM@ZA DD 01H DUP (?)		; AGKCommand2007
?AGKCommand2008@@3P6AXIPBDIMM@ZA DD 01H DUP (?)		; AGKCommand2008
?AGKCommand2009@@3P6AXIPBDIMMM@ZA DD 01H DUP (?)	; AGKCommand2009
?AGKCommand2010@@3P6AXIPBDIMMMM@ZA DD 01H DUP (?)	; AGKCommand2010
?AGKCommand2011@@3P6AMI@ZA DD 01H DUP (?)		; AGKCommand2011
?AGKCommand2012@@3P6AHXZA DD 01H DUP (?)		; AGKCommand2012
?AGKCommand2013@@3P6AHXZA DD 01H DUP (?)		; AGKCommand2013
?AGKCommand2014@@3P6AHXZA DD 01H DUP (?)		; AGKCommand2014
?AGKCommand2015@@3P6AMXZA DD 01H DUP (?)		; AGKCommand2015
?AGKCommand2016@@3P6AIIIII@ZA DD 01H DUP (?)		; AGKCommand2016
?AGKCommand2017@@3P6AII@ZA DD 01H DUP (?)		; AGKCommand2017
?AGKCommand2018@@3P6AXH@ZA DD 01H DUP (?)		; AGKCommand2018
?AGKCommand2019@@3P6AXXZA DD 01H DUP (?)		; AGKCommand2019
?AGKCommand2020@@3P6AHPBD@ZA DD 01H DUP (?)		; AGKCommand2020
?AGKCommand2021@@3P6AXMMHHM@ZA DD 01H DUP (?)		; AGKCommand2021
?AGKCommand2022@@3P6AXPBD000@ZA DD 01H DUP (?)		; AGKCommand2022
?AGKCommand2023@@3P6AXHHPBD0@ZA DD 01H DUP (?)		; AGKCommand2023
?AGKCommand2024@@3P6AXPBD@ZA DD 01H DUP (?)		; AGKCommand2024
?AGKCommand2025@@3P6AXPBD@ZA DD 01H DUP (?)		; AGKCommand2025
?AGKCommand2026@@3P6APADXZA DD 01H DUP (?)		; AGKCommand2026
?AGKCommand2027@@3P6AII@ZA DD 01H DUP (?)		; AGKCommand2027
?AGKCommand2028@@3P6APAXI@ZA DD 01H DUP (?)		; AGKCommand2028
?AGKCommand2029@@3P6AXIH@ZA DD 01H DUP (?)		; AGKCommand2029
?GetAGKFunction@@3P6AP6AXXZPBD@ZA DD 01H DUP (?)	; GetAGKFunction
_BSS	ENDS
msvcjmc	SEGMENT
__E5B9A0F7_AGKLibraryCommands@h DB 01H
__FE44D600_AGKLibraryCommands@cpp DB 01H
msvcjmc	ENDS
PUBLIC	_ReceiveAGKPtr
PUBLIC	__JustMyCode_Default
PUBLIC	??_C@_0BB@FGGHBLEA@CREATESTRING_S_L@		; `string'
PUBLIC	??_C@_0BB@OGDMGPOH@DELETESTRING_0_S@		; `string'
PUBLIC	??_C@_0BD@PDBLJIGG@WORLDTOSCREENX_F_F@		; `string'
PUBLIC	??_C@_0BD@DIEHELMD@WORLDTOSCREENY_F_F@		; `string'
PUBLIC	??_C@_0BD@DDLCLAIH@SCREENTOWORLDX_F_F@		; `string'
PUBLIC	??_C@_0BD@PIOOGDCC@SCREENTOWORLDY_F_F@		; `string'
PUBLIC	??_C@_0BG@OOPPBMLA@SETRESOLUTIONMODE_0_L@	; `string'
PUBLIC	??_C@_0BC@LEHNPCLK@SETSYNCRATE_0_F_L@		; `string'
PUBLIC	??_C@_0CA@PJPJJIJG@SETORIENTATIONALLOWED_0_L_L_L_L@ ; `string'
PUBLIC	??_C@_0BG@INAGCIGH@SETTRANSITIONMODE_0_L@	; `string'
PUBLIC	??_C@_0BF@KEHFKPOM@SETDISPLAYASPECT_0_F@	; `string'
PUBLIC	??_C@_0BH@HPGNOPEL@SETRENDERTOIMAGE_0_L_L@	; `string'
PUBLIC	??_C@_0BG@LBNIJEHE@SETRENDERTOSCREEN_0_0@	; `string'
PUBLIC	??_C@_09PDFODCPP@GETCL_S_0@			; `string'
PUBLIC	??_C@_0BF@NGDNNKMA@SETSCISSOR_0_F_F_F_F@	; `string'
PUBLIC	??_C@_0BM@JKCHPGNJ@SETINTENDEDDEVICESIZE_0_L_L@	; `string'
PUBLIC	??_C@_0BH@DOGALICL@USENEWDEFAULTFONTS_0_L@	; `string'
PUBLIC	??_C@_0BD@CADBGOEC@GETDEVICEWIDTH_L_0@		; `string'
PUBLIC	??_C@_0BE@CPFNEPMA@GETDEVICEHEIGHT_L_0@		; `string'
PUBLIC	??_C@_0BL@DJDDFKMK@SETVIRTUALRESOLUTION_0_L_L@	; `string'
PUBLIC	??_C@_0BH@DLHJMLLO@UPDATEDEVICESIZE_0_L_L@	; `string'
PUBLIC	??_C@_0BE@MOKFOPHA@GETVIRTUALWIDTH_L_0@		; `string'
PUBLIC	??_C@_0BF@OHGEIKMB@GETVIRTUALHEIGHT_L_0@	; `string'
PUBLIC	??_C@_0BI@LOEACBEP@GETSCREENBOUNDSLEFT_F_0@	; `string'
PUBLIC	??_C@_0BJ@ODLBAPIA@GETSCREENBOUNDSRIGHT_F_0@	; `string'
PUBLIC	??_C@_0BH@BIBKDNBL@GETSCREENBOUNDSTOP_F_0@	; `string'
PUBLIC	??_C@_0BK@HABOANP@GETSCREENBOUNDSBOTTOM_F_0@	; `string'
PUBLIC	??_C@_0BF@MKFJJIIL@GETDISPLAYASPECT_F_0@	; `string'
PUBLIC	??_C@_0BD@KBHIJEFP@GETORIENTATION_L_0@		; `string'
PUBLIC	??_C@_0O@COJICLCB@GETPAUSED_L_0@		; `string'
PUBLIC	??_C@_0P@ILADCBDB@GETRESUMED_L_0@		; `string'
PUBLIC	??_C@_0BI@PDABEEBO@SETDEFAULTMAGFILTER_0_L@	; `string'
PUBLIC	??_C@_0BI@DEKLKNOC@SETDEFAULTMINFILTER_0_L@	; `string'
PUBLIC	??_C@_0BE@CNEFDHHD@SETDEFAULTWRAPU_0_L@		; `string'
PUBLIC	??_C@_0BE@KLNBEFNN@SETDEFAULTWRAPV_0_L@		; `string'
PUBLIC	??_C@_0BE@LLCJOMHC@SETVIEWOFFSET_0_F_F@		; `string'
PUBLIC	??_C@_0BA@FAJDCCCD@SETVIEWZOOM_0_F@		; `string'
PUBLIC	??_C@_0BE@NNAGIABN@SETVIEWZOOMMODE_0_L@		; `string'
PUBLIC	??_C@_0BD@JNNKIEFO@GETVIEWOFFSETX_F_0@		; `string'
PUBLIC	??_C@_0BD@FGIGFHPL@GETVIEWOFFSETY_F_0@		; `string'
PUBLIC	??_C@_0BA@FFLEHBAK@GETVIEWZOOM_F_0@		; `string'
PUBLIC	??_C@_08HHHGPHCM@SYNC_0_0@			; `string'
PUBLIC	??_C@_09MOMOJOMK@BREAK_0_0@			; `string'
PUBLIC	??_C@_0BA@CGAOHINJ@STEPPHYSICS_0_F@		; `string'
PUBLIC	??_C@_0L@EBGIFOIL@UPDATE_0_F@			; `string'
PUBLIC	??_C@_0N@KBOBGAKH@UPDATE2D_0_F@			; `string'
PUBLIC	??_C@_0N@HJGGLBD@UPDATE3D_0_F@			; `string'
PUBLIC	??_C@_0BB@ODNFGCFC@RENDER2DBACK_0_0@		; `string'
PUBLIC	??_C@_0L@NCAFPOHH@RENDER_0_0@			; `string'
PUBLIC	??_C@_0BC@JCJKEMHI@RENDER2DFRONT_0_0@		; `string'
PUBLIC	??_C@_0N@FOHINEBH@RENDER3D_0_0@			; `string'
PUBLIC	??_C@_08BBPGOFMC@SWAP_0_0@			; `string'
PUBLIC	??_C@_0BA@JGBKFNOC@CLEARSCREEN_0_0@		; `string'
PUBLIC	??_C@_0BF@ICAANLBL@CLEARDEPTHBUFFER_0_0@	; `string'
PUBLIC	??_C@_0BH@HEAPDOLP@SETGENERATEMIPMAPS_0_L@	; `string'
PUBLIC	??_C@_09IHMMCAHM@TIMER_F_0@			; `string'
PUBLIC	??_C@_0P@MKCDENGL@RESETTIMER_0_0@		; `string'
PUBLIC	??_C@_0P@PDJKIILN@GETRUNTIME_F_0@		; `string'
PUBLIC	??_C@_0P@DIMNBKCN@GETSECONDS_L_0@		; `string'
PUBLIC	??_C@_0BB@NKJNKGPB@GETFRAMETIME_F_0@		; `string'
PUBLIC	??_C@_0BE@OHAHLPPG@GETMILLISECONDS_L_0@		; `string'
PUBLIC	??_C@_0BA@DICNBHDG@GETDEVICEID_S_0@		; `string'
PUBLIC	??_C@_0BF@IGFFBAPF@GETNUMPROCESSORS_L_0@	; `string'
PUBLIC	??_C@_08BAIGHKDD@SHA1_S_S@			; `string'
PUBLIC	??_C@_0L@ELLNAACP@SHA256_S_S@			; `string'
PUBLIC	??_C@_0L@COKGGPDD@SHA512_S_S@			; `string'
PUBLIC	??_C@_0P@KMCDDAEL@HTTPENCODE_S_S@		; `string'
PUBLIC	??_C@_0P@JFENBEHM@HTTPDECODE_S_S@		; `string'
PUBLIC	??_C@_0BC@CKIDJFBL@SETRANDOMSEED_0_L@		; `string'
PUBLIC	??_C@_0L@KMPHKOCJ@RANDOM_L_0@			; `string'
PUBLIC	??_C@_0N@GPONMLFD@RANDOM_L_L_L@			; `string'
PUBLIC	??_C@_0P@BBCBJNBE@RANDOMSIGN_L_L@		; `string'
PUBLIC	??_C@_0BD@EKOEMBE@SETRANDOMSEED2_0_L@		; `string'
PUBLIC	??_C@_0M@PFFNMIL@RANDOM2_L_0@			; `string'
PUBLIC	??_C@_0O@ENNHKGIK@RANDOM2_L_L_L@		; `string'
PUBLIC	??_C@_0P@DCPFCDAA@ATANFULL_F_F_F@		; `string'
PUBLIC	??_C@_0BC@HODEDJG@ATANFULLRAD_F_F_F@		; `string'
PUBLIC	??_C@_0BE@BGMCABOB@SETSORTTEXTURES_0_L@		; `string'
PUBLIC	??_C@_0BB@LFEIFNNB@SETSORTDEPTH_0_L@		; `string'
PUBLIC	??_C@_0BM@GKOMLLOM@SETSORTTRANSPARENTDEPTH_0_L@	; `string'
PUBLIC	??_C@_0BD@DLLAMHJJ@SETSORTCREATED_0_L@		; `string'
PUBLIC	??_C@_0O@JGFCKIFF@SCREENFPS_F_0@		; `string'
PUBLIC	??_C@_0BF@FMLCGBNL@GETPOLYGONSDRAWN_L_0@	; `string'
PUBLIC	??_C@_0BJ@BECHKNAL@GETVERTICESPROCESSED_L_0@	; `string'
PUBLIC	??_C@_0BF@NKCIBONP@ENABLECLEARDEPTH_0_L@	; `string'
PUBLIC	??_C@_0BF@EBFKECJF@ENABLECLEARCOLOR_0_L@	; `string'
PUBLIC	??_C@_0BH@FAIFKKLJ@SETBORDERCOLOR_0_L_L_L@	; `string'
PUBLIC	??_C@_0BG@BHFMPHCN@SETCLEARCOLOR_0_L_L_L@	; `string'
PUBLIC	??_C@_0BA@OFPBCDBE@GETIMAGEPTR_P_L@		; `string'
PUBLIC	??_C@_0BG@CLCAHAEC@GETIMAGETEXTUREID_L_L@	; `string'
PUBLIC	??_C@_0BC@IBFLMLLO@LOADIMAGE_0_L_S_L@		; `string'
PUBLIC	??_C@_0BA@PDBJJFOE@LOADIMAGE_0_L_S@		; `string'
PUBLIC	??_C@_0BA@EKNJBBAJ@LOADIMAGE_L_S_L@		; `string'
PUBLIC	??_C@_0O@PJCJDHGM@LOADIMAGE_L_S@		; `string'
PUBLIC	??_C@_0BF@PHPHINJP@LOADSUBIMAGE_0_L_L_S@	; `string'
PUBLIC	??_C@_0BD@CPOGJJNK@LOADSUBIMAGE_L_L_S@		; `string'
PUBLIC	??_C@_0BN@PINHNKLP@LOADIMAGERESIZED_0_L_S_F_F_L@ ; `string'
PUBLIC	??_C@_0BL@LPNHJNKH@LOADIMAGERESIZED_L_S_F_F_L@	; `string'
PUBLIC	??_C@_0BN@BOMKKGL@CREATEIMAGECOLOR_0_L_L_L_L_L@	; `string'
PUBLIC	??_C@_0BL@BEPHJINE@CREATEIMAGECOLOR_L_L_L_L_L@	; `string'
PUBLIC	??_C@_0BO@DNDJEIHC@CREATERENDERIMAGE_0_L_L_L_L_L@ ; `string'
PUBLIC	??_C@_0BM@MEJMFEHE@CREATERENDERIMAGE_L_L_L_L_L@	; `string'
PUBLIC	??_C@_0BD@JNLIHIHN@GETIMAGEEXISTS_L_L@		; `string'
PUBLIC	??_C@_0BA@EEMDEIMF@DELETEIMAGE_0_L@		; `string'
PUBLIC	??_C@_0BE@JOMKODIG@DELETEALLIMAGES_0_0@		; `string'
PUBLIC	??_C@_0BC@DAFNJIMJ@GETIMAGEWIDTH_F_L@		; `string'
PUBLIC	??_C@_0BD@KOELCGJF@GETIMAGEHEIGHT_F_L@		; `string'
PUBLIC	??_C@_0BI@JGHHKBPG@SETIMAGEMINFILTER_0_L_L@	; `string'
PUBLIC	??_C@_0BI@PHKIJCDB@SETIMAGEMAGFILTER_0_L_L@	; `string'
PUBLIC	??_C@_0BE@HNDMHNDF@SETIMAGEWRAPU_0_L_L@		; `string'
PUBLIC	??_C@_0BE@PDLDHKNG@SETIMAGEWRAPV_0_L_L@		; `string'
PUBLIC	??_C@_0BL@GHJLMGHK@SETIMAGEMASK_0_L_L_L_L_L_L@	; `string'
PUBLIC	??_C@_0CD@OAELGLCF@SETIMAGETRANSPARENTCOLOR_0_L_L_@ ; `string'
PUBLIC	??_C@_0BA@KIEOJLBM@SAVEIMAGE_0_L_S@		; `string'
PUBLIC	??_C@_0BD@NAGLAOCI@GETIMAGE_L_F_F_F_F@		; `string'
PUBLIC	??_C@_0BF@ENEEIOHE@GETIMAGE_0_L_F_F_F_F@	; `string'
PUBLIC	??_C@_0BF@FGLHPPGG@GETIMAGEFILENAME_S_L@	; `string'
PUBLIC	??_C@_0BG@KIDGNNO@COPYIMAGE_L_L_L_L_L_L@	; `string'
PUBLIC	??_C@_0BI@NHAOLEBL@COPYIMAGE_0_L_L_L_L_L_L@	; `string'
PUBLIC	??_C@_0BE@PHHCEFCJ@RESIZEIMAGE_0_L_L_L@		; `string'
PUBLIC	??_C@_0BK@HGIBLFCA@SHOWCHOOSEIMAGESCREEN_L_0@	; `string'
PUBLIC	??_C@_0BE@PHMAPBFE@ISCHOOSINGIMAGE_L_0@		; `string'
PUBLIC	??_C@_0BD@GNKFLOPB@GETCHOSENIMAGE_L_0@		; `string'
PUBLIC	??_C@_0BL@BNMKLJIC@SHOWIMAGECAPTURESCREEN_L_0@	; `string'
PUBLIC	??_C@_0BF@KFECPDDG@ISCAPTURINGIMAGE_L_0@	; `string'
PUBLIC	??_C@_0BF@GNIOKGFD@GETCAPTUREDIMAGE_L_0@	; `string'
PUBLIC	??_C@_0BB@PBFDOODO@DECODEQRCODE_S_L@		; `string'
PUBLIC	??_C@_0BD@ONJEEIGE@ENCODEQRCODE_L_S_L@		; `string'
PUBLIC	??_C@_0BB@KNCDDLHK@PRINTIMAGE_0_L_F@		; `string'
PUBLIC	??_C@_0BH@JAJMPFDO@SETIMAGESAVEPIXELS_0_L@	; `string'
PUBLIC	??_C@_0BB@JJMBEOFG@GETSPRITEPTR_P_L@		; `string'
PUBLIC	??_C@_0BF@NMHAAIDH@GETSPRITEIMAGEID_L_L@	; `string'
PUBLIC	??_C@_0BD@LHJNDABD@CREATESPRITE_0_L_L@		; `string'
PUBLIC	??_C@_0BB@NJJAJOHI@CREATESPRITE_L_L@		; `string'
PUBLIC	??_C@_0P@MELHKKIC@LOADSPRITE_L_S@		; `string'
PUBLIC	??_C@_0BB@LNFKJJOB@LOADSPRITE_0_L_S@		; `string'
PUBLIC	??_C@_0BC@EHHICGGG@CLONESPRITE_0_L_L@		; `string'
PUBLIC	??_C@_0BA@IJOGDHPM@CLONESPRITE_L_L@		; `string'
PUBLIC	??_C@_0BG@GMMDBELO@CREATEDUMMYSPRITE_0_L@	; `string'
PUBLIC	??_C@_0BG@MOKADNGA@CREATEDUMMYSPRITE_L_0@	; `string'
PUBLIC	??_C@_0BE@BICMAEOJ@GETSPRITEEXISTS_L_L@		; `string'
PUBLIC	??_C@_0BB@KMOLKDII@DELETESPRITE_0_L@		; `string'
PUBLIC	??_C@_0BF@KEGEGEMD@DELETEALLSPRITES_0_0@	; `string'
PUBLIC	??_C@_0BF@BBNAPIED@SETSPRITEIMAGE_0_L_L@	; `string'
PUBLIC	??_C@_0BH@FDBOBOLM@SETSPRITEIMAGE_0_L_L_L@	; `string'
PUBLIC	??_C@_0CB@DOPENNEC@SETSPRITEADDITIONALIMAGE_0_L_L_@ ; `string'
PUBLIC	??_C@_0CA@OKGICLJD@SETSPRITEUV_0_L_F_F_F_F_F_F_F_F@ ; `string'
PUBLIC	??_C@_0BC@NIEHHCNN@RESETSPRITEUV_0_L@		; `string'
PUBLIC	??_C@_0BK@MDOGMNO@SETSPRITEPOSITION_0_L_F_F@	; `string'
PUBLIC	??_C@_0CC@FLHEJOKD@SETSPRITEPOSITIONBYOFFSET_0_L_F@ ; `string'
PUBLIC	??_C@_0BB@IJGGBBFH@SETSPRITEX_0_L_F@		; `string'
PUBLIC	??_C@_0BB@EFMMBBMJ@SETSPRITEY_0_L_F@		; `string'
PUBLIC	??_C@_0BF@PLJKOOKM@SETSPRITEANGLE_0_L_F@	; `string'
PUBLIC	??_C@_0BI@OBNHNJDI@SETSPRITEANGLERAD_0_L_F@	; `string'
PUBLIC	??_C@_0BF@PDJIJJFL@SETSPRITEDEPTH_0_L_L@	; `string'
PUBLIC	??_C@_0BG@MDHJBMJO@SETSPRITEFLIP_0_L_L_L@	; `string'
PUBLIC	??_C@_0BE@GDMEDHEH@SETSPRITESNAP_0_L_L@		; `string'
PUBLIC	??_C@_0BH@POBFJDFG@SETSPRITEVISIBLE_0_L_L@	; `string'
PUBLIC	??_C@_0BG@EGLEECEM@SETSPRITEACTIVE_0_L_L@	; `string'
PUBLIC	??_C@_0P@JBOGOBPC@GETSPRITEX_F_L@		; `string'
PUBLIC	??_C@_0P@FKLKDCFH@GETSPRITEY_F_L@		; `string'
PUBLIC	??_C@_0BH@MIIMAAGI@GETSPRITEXBYOFFSET_F_L@	; `string'
PUBLIC	??_C@_0BH@FFIDOBBO@GETSPRITEYBYOFFSET_F_L@	; `string'
PUBLIC	??_C@_0BF@BODMPNBN@GETSPRITEOFFSETX_F_L@	; `string'
PUBLIC	??_C@_0BF@NFGACOLI@GETSPRITEOFFSETY_F_L@	; `string'
PUBLIC	??_C@_0BD@MBBBNEJL@GETSPRITEWIDTH_F_L@		; `string'
PUBLIC	??_C@_0BD@OJOAIOGJ@GETSPRITEANGLE_F_L@		; `string'
PUBLIC	??_C@_0BG@NHKMPNML@GETSPRITEANGLERAD_F_L@	; `string'
PUBLIC	??_C@_0BE@CLNPFKAB@GETSPRITEHEIGHT_F_L@		; `string'
PUBLIC	??_C@_0BE@FLLBHGDM@GETSPRITESCALEX_F_L@		; `string'
PUBLIC	??_C@_0BE@JAONKFJJ@GETSPRITESCALEY_F_L@		; `string'
PUBLIC	??_C@_0BJ@KCHFNJBM@GETSPRITEHITTEST_L_L_F_F@	; `string'
PUBLIC	??_C@_0BD@IHGMBLD@GETSPRITEHIT_L_F_F@		; `string'
PUBLIC	??_C@_0BK@LPKLJHBD@GETSPRITEHITGROUP_L_L_F_F@	; `string'
PUBLIC	??_C@_0BN@BHGEJDOJ@GETSPRITEHITCATEGORY_L_L_F_F@ ; `string'
PUBLIC	??_C@_0BD@HMPAMCNB@GETSPRITEDEPTH_L_L@		; `string'
PUBLIC	??_C@_0BG@LHBANDGH@GETSPRITECOLORRED_L_L@	; `string'
PUBLIC	??_C@_0BI@EFKAKHJL@GETSPRITECOLORGREEN_L_L@	; `string'
PUBLIC	??_C@_0BH@CEEKADPG@GETSPRITECOLORBLUE_L_L@	; `string'
PUBLIC	??_C@_0BI@IIGGKCGF@GETSPRITECOLORALPHA_L_L@	; `string'
PUBLIC	??_C@_0BF@PMNBMABG@GETSPRITEPLAYING_L_L@	; `string'
PUBLIC	??_C@_0BF@GKBNHGGE@GETSPRITEVISIBLE_L_L@	; `string'
PUBLIC	??_C@_0BE@IFFPHFBO@GETSPRITEACTIVE_L_L@		; `string'
PUBLIC	??_C@_0BD@LDAPPOKP@GETSPRITEGROUP_L_L@		; `string'
PUBLIC	??_C@_0BK@GAFEFHGN@GETSPRITEXFROMPIXEL_F_L_L@	; `string'
PUBLIC	??_C@_0BK@OHPCJMCO@GETSPRITEYFROMPIXEL_F_L_L@	; `string'
PUBLIC	??_C@_0BK@NDNNMGOG@GETSPRITEPIXELFROMX_L_L_F@	; `string'
PUBLIC	??_C@_0BK@BPHHMGHI@GETSPRITEPIXELFROMY_L_L_F@	; `string'
PUBLIC	??_C@_0BM@GEGPBALH@GETWORLDXFROMSPRITE_F_L_F_F@	; `string'
PUBLIC	??_C@_0BM@BAICLPB@GETWORLDYFROMSPRITE_F_L_F_F@	; `string'
PUBLIC	??_C@_0BM@MMKHDDIO@GETSPRITEXFROMWORLD_F_L_F_F@	; `string'
PUBLIC	??_C@_0BM@BLEFLDNG@GETSPRITEYFROMWORLD_F_L_F_F@	; `string'
PUBLIC	??_C@_0BG@JBDDJOMP@SETSPRITESIZE_0_L_F_F@	; `string'
PUBLIC	??_C@_0BN@HAALBFJL@SETSPRITEANIMATION_0_L_L_L_L@ ; `string'
PUBLIC	??_C@_0BO@MFGCPAIP@ADDSPRITEANIMATIONFRAME_0_L_L@ ; `string'
PUBLIC	??_C@_0BP@MKLDDGGP@CLEARSPRITEANIMATIONFRAMES_0_L@ ; `string'
PUBLIC	??_C@_0BF@IDMFBEPK@SETSPRITESPEED_0_L_F@	; `string'
PUBLIC	??_C@_0P@MHEFEEFK@PLAYSPRITE_0_L@		; `string'
PUBLIC	??_C@_0BB@PACGHGBM@PLAYSPRITE_0_L_F@		; `string'
PUBLIC	??_C@_0BD@GEDNBAPG@PLAYSPRITE_0_L_F_L@		; `string'
PUBLIC	??_C@_0BH@MPLBNBOP@PLAYSPRITE_0_L_F_L_L_L@	; `string'
PUBLIC	??_C@_0P@OEJMDKFI@STOPSPRITE_0_L@		; `string'
PUBLIC	??_C@_0BB@FJEEEBHB@RESUMESPRITE_0_L@		; `string'
PUBLIC	??_C@_0BF@MLGENNKB@SETSPRITEFRAME_0_L_L@	; `string'
PUBLIC	??_C@_0BK@BKHGAMGJ@GETSPRITECURRENTFRAME_L_L@	; `string'
PUBLIC	??_C@_0BI@DCADLPO@GETSPRITEFRAMECOUNT_L_L@	; `string'
PUBLIC	??_C@_0BM@KCMGAGIL@SETSPRITETRANSPARENCY_0_L_L@	; `string'
PUBLIC	??_C@_0BI@MOLMCPGD@SETSPRITEOFFSET_0_L_F_F@	; `string'
PUBLIC	??_C@_0BL@DEJHNLOI@SETSPRITECOLOR_0_L_L_L_L_L@	; `string'
PUBLIC	??_C@_0BI@GEMHIMEC@SETSPRITECOLORRED_0_L_L@	; `string'
PUBLIC	??_C@_0BK@BNANEJKC@SETSPRITECOLORGREEN_0_L_L@	; `string'
PUBLIC	??_C@_0BJ@DPIJPKGA@SETSPRITECOLORBLUE_0_L_L@	; `string'
PUBLIC	??_C@_0BK@OHFILMNI@SETSPRITECOLORALPHA_0_L_L@	; `string'
PUBLIC	??_C@_0BI@FKNGCJOK@SETSPRITEUVBORDER_0_L_F@	; `string'
PUBLIC	??_C@_0BK@HEJIGNOG@SETSPRITEUVOFFSET_0_L_F_F@	; `string'
PUBLIC	??_C@_0BJ@FPHKPLKF@SETSPRITEUVSCALE_0_L_F_F@	; `string'
PUBLIC	??_C@_0BI@LCEHHNA@FIXSPRITETOSCREEN_0_L_L@	; `string'
PUBLIC	??_C@_0BH@KLAOHLFB@SETSPRITESCALE_0_L_F_F@	; `string'
PUBLIC	??_C@_0BP@LFGLOPLO@SETSPRITESCALEBYOFFSET_0_L_F_F@ ; `string'
PUBLIC	??_C@_0BN@NJMGLKEN@SETSPRITESCISSOR_0_L_F_F_F_F@ ; `string'
PUBLIC	??_C@_0BG@CKBBFAGM@SETSPRITESHADER_0_L_L@	; `string'
PUBLIC	??_C@_0P@ENEDAEIE@DRAWSPRITE_0_L@		; `string'
PUBLIC	??_C@_0BE@EJGFBALL@SETPHYSICSSCALE_0_F@		; `string'
PUBLIC	??_C@_0BI@NEEAKJLA@SETPHYSICSGRAVITY_0_F_F@	; `string'
PUBLIC	??_C@_0BG@IDMGPIFH@SETPHYSICSDEBUGON_0_0@	; `string'
PUBLIC	??_C@_0BH@GFAKCLM@SETPHYSICSDEBUGOFF_0_0@	; `string'
PUBLIC	??_C@_0BI@KMMAGDFK@SETPHYSICSTHREADING_0_L@	; `string'
PUBLIC	??_C@_0BC@MOGELJHG@SETPHYSICSCCD_0_L@		; `string'
PUBLIC	??_C@_0BH@CJOPCBMD@SETPHYSICSSLEEPING_0_L@	; `string'
PUBLIC	??_C@_0BI@GEPLCCKP@GETPHYSICSSOLVETIME_F_0@	; `string'
PUBLIC	??_C@_0BK@KKHLAKLD@GETPHYSICSISLANDCOUNT_L_0@	; `string'
PUBLIC	??_C@_0BP@GBNCFPLK@SETPHYSICSMAXPOLYGONPOINTS_0_L@ ; `string'
PUBLIC	??_C@_0BG@BOFBBDJJ@SETPHYSICSWALLTOP_0_L@	; `string'
PUBLIC	??_C@_0BH@FLFHMFIM@SETPHYSICSWALLLEFT_0_L@	; `string'
PUBLIC	??_C@_0BI@HJOMGIP@SETPHYSICSWALLRIGHT_0_L@	; `string'
PUBLIC	??_C@_0BJ@HBPNJPGG@SETPHYSICSWALLBOTTOM_0_L@	; `string'
PUBLIC	??_C@_0CB@BOLBJEFO@CREATEPHYSICSFORCE_L_F_F_F_F_F_@ ; `string'
PUBLIC	??_C@_0BH@MLDPPDKC@DELETEPHYSICSFORCE_0_L@	; `string'
PUBLIC	??_C@_0CA@FCHLCDBK@SETPHYSICSFORCEPOSITION_0_L_F_F@ ; `string'
PUBLIC	??_C@_0BL@IIIOAABO@SETPHYSICSFORCEPOWER_0_L_F@	; `string'
PUBLIC	??_C@_0BL@LFPAAPBB@SETPHYSICSFORCERANGE_0_L_F@	; `string'
PUBLIC	??_C@_0BF@EOAJHOCE@SETSPRITESHAPE_0_L_L@	; `string'
PUBLIC	??_C@_0CA@IMNMPCEE@SETSPRITESHAPEBOX_0_L_F_F_F_F_F@ ; `string'
PUBLIC	??_C@_0BP@FCAJIIHD@SETSPRITESHAPECIRCLE_0_L_F_F_F@ ; `string'
PUBLIC	??_C@_0CC@MFMPGOKB@SETSPRITESHAPEPOLYGON_0_L_L_L_F@ ; `string'
PUBLIC	??_C@_0CA@NHELEFGL@ADDSPRITESHAPEBOX_0_L_F_F_F_F_F@ ; `string'
PUBLIC	??_C@_0BP@BLBALKMM@ADDSPRITESHAPECIRCLE_0_L_F_F_F@ ; `string'
PUBLIC	??_C@_0CC@ICNGCLHE@ADDSPRITESHAPEPOLYGON_0_L_L_L_F@ ; `string'
PUBLIC	??_C@_0BG@BGCMIFBB@CLEARSPRITESHAPES_0_L@	; `string'
PUBLIC	??_C@_0BM@HGIGFNBA@SETSPRITEPHYSICSCOM_0_L_F_F@	; `string'
PUBLIC	??_C@_0BO@EFDHMCPP@CALCULATESPRITEPHYSICSCOM_0_L@ ; `string'
PUBLIC	??_C@_0BJ@KJOOKKNI@SETSPRITEPHYSICSON_0_L_L@	; `string'
PUBLIC	??_C@_0BI@DNPAMABB@SETSPRITEPHYSICSOFF_0_L@	; `string'
PUBLIC	??_C@_0BL@OKBDECGO@SETSPRITEPHYSICSDELETE_0_L@	; `string'
PUBLIC	??_C@_0BP@JLIHANC@SETSPRITEPHYSICSFRICTION_0_L_F@ ; `string'
PUBLIC	??_C@_0CC@FEHMKOCL@SETSPRITEPHYSICSRESTITUTION_0_L@ ; `string'
PUBLIC	??_C@_0CA@DHPBOPOA@SETSPRITEPHYSICSCANROTATE_0_L_L@ ; `string'
PUBLIC	??_C@_0CB@LGOEFHLL@SETSPRITEPHYSICSVELOCITY_0_L_F_@ ; `string'
PUBLIC	??_C@_0CG@MNJEDCAN@SETSPRITEPHYSICSANGULARVELOCITY@ ; `string'
PUBLIC	??_C@_0BO@MMEDHAKI@SETSPRITEPHYSICSDAMPING_0_L_F@ ; `string'
PUBLIC	??_C@_0CF@PKOOHLME@SETSPRITEPHYSICSANGULARDAMPING_@ ; `string'
PUBLIC	??_C@_0BP@LEHFAELL@SETSPRITEPHYSICSISBULLET_0_L_L@ ; `string'
PUBLIC	??_C@_0BL@NDPGFGLL@SETSPRITEPHYSICSMASS_0_L_F@	; `string'
PUBLIC	??_C@_0BP@MHEHGKF@SETSPRITEPHYSICSISSENSOR_0_L_L@ ; `string'
PUBLIC	??_C@_0BF@GNELHOFL@SETSPRITEGROUP_0_L_L@	; `string'
PUBLIC	??_C@_0BM@JCFKEINK@SETSPRITECATEGORYBITS_0_L_L@	; `string'
PUBLIC	??_C@_0BN@FGJHGELL@SETSPRITECATEGORYBIT_0_L_L_L@ ; `string'
PUBLIC	??_C@_0BL@DLCCGLOF@SETSPRITECOLLIDEBITS_0_L_L@	; `string'
PUBLIC	??_C@_0BM@OAFIDBKF@SETSPRITECOLLIDEBIT_0_L_L_L@	; `string'
PUBLIC	??_C@_0CC@EHHGNFEC@SETSPRITEPHYSICSFORCE_0_L_F_F_F@ ; `string'
PUBLIC	??_C@_0BN@DJOBJJCP@SETSPRITEPHYSICSTORQUE_0_L_F@ ; `string'
PUBLIC	??_C@_0CE@IIIPNICM@SETSPRITEPHYSICSIMPULSE_0_L_F_F@ ; `string'
PUBLIC	??_C@_0CF@MNMNJLCL@SETSPRITEPHYSICSANGULARIMPULSE_@ ; `string'
PUBLIC	??_C@_0BO@DPLAFFJE@GETSPRITEPHYSICSVELOCITYX_F_L@ ; `string'
PUBLIC	??_C@_0BO@PEOMIGDB@GETSPRITEPHYSICSVELOCITYY_F_L@ ; `string'
PUBLIC	??_C@_0CE@DBOGBGMA@GETSPRITEPHYSICSANGULARVELOCITY@ ; `string'
PUBLIC	??_C@_0BJ@NLOPAKID@GETSPRITEPHYSICSMASS_F_L@	; `string'
PUBLIC	??_C@_0BA@PPFFEBI@DELETEJOINT_0_L@		; `string'
PUBLIC	??_C@_0BD@DPIHMIFD@GETJOINTEXISTS_L_L@		; `string'
PUBLIC	??_C@_0CG@GODFLIP@CREATEDISTANCEJOINT_0_L_L_L_F_F@ ; `string'
PUBLIC	??_C@_0CC@FACMCOJM@CREATEREVOLUTEJOINT_0_L_L_L_F_F@ ; `string'
PUBLIC	??_C@_0CH@BNKHMGIB@CREATEPRISMATICJOINT_0_L_L_L_F_@ ; `string'
PUBLIC	??_C@_0CO@KAPMBHH@CREATEPULLEYJOINT_0_L_L_L_F_F_F@ ; `string'
PUBLIC	??_C@_0BN@CPHMOKHO@CREATEMOUSEJOINT_0_L_L_F_F_F@ ; `string'
PUBLIC	??_C@_0CC@GCKIDJKH@CREATELINEJOINT_0_L_L_L_F_F_F_F@ ; `string'
PUBLIC	??_C@_0BO@GGBJJIAF@CREATEWELDJOINT_0_L_L_L_F_F_L@ ; `string'
PUBLIC	??_C@_0BK@OLPKMBJH@CREATEGEARJOINT_0_L_L_L_F@	; `string'
PUBLIC	??_C@_0CE@IFOLDOAM@CREATEDISTANCEJOINT_L_L_L_F_F_F@ ; `string'
PUBLIC	??_C@_0CA@HIJKDMJ@CREATEREVOLUTEJOINT_L_L_L_F_F_L@ ; `string'
PUBLIC	??_C@_0CF@GCMCBOCB@CREATEPRISMATICJOINT_L_L_L_F_F_@ ; `string'
PUBLIC	??_C@_0BN@BGIEOAKL@CREATEPULLEYJOINT2_0_L_L_F_L@ ; `string'
PUBLIC	??_C@_0CE@GLIAIIEB@FINISHPULLEYJOINT_L_F_F_F_F_F_F@ ; `string'
PUBLIC	??_C@_0BL@EMFLGAEL@CREATEMOUSEJOINT_L_L_F_F_F@	; `string'
PUBLIC	??_C@_0CA@CAIGJEHJ@CREATELINEJOINT_L_L_L_F_F_F_F_L@ ; `string'
PUBLIC	??_C@_0BM@PIKMPPGD@CREATEWELDJOINT_L_L_L_F_F_L@	; `string'
PUBLIC	??_C@_0BI@NJNJLEGA@CREATEGEARJOINT_L_L_L_F@	; `string'
PUBLIC	??_C@_0BI@MKMAFCPP@SETJOINTLIMITON_0_L_F_F@	; `string'
PUBLIC	??_C@_0BF@KPEFAMKC@SETJOINTLIMITOFF_0_L@	; `string'
PUBLIC	??_C@_0BI@MBGOKOIN@SETJOINTMOTORON_0_L_F_F@	; `string'
PUBLIC	??_C@_0BF@DGFBIDEE@SETJOINTMOTOROFF_0_L@	; `string'
PUBLIC	??_C@_0BM@IKJGDA@SETJOINTMOUSETARGET_0_L_F_F@	; `string'
PUBLIC	??_C@_0BL@GAKBKJHG@GETJOINTREACTIONFORCEX_F_L@	; `string'
PUBLIC	??_C@_0BL@KLPNHKND@GETJOINTREACTIONFORCEY_F_L@	; `string'
PUBLIC	??_C@_0BL@HADDGPKB@GETJOINTREACTIONTORQUE_F_L@	; `string'
PUBLIC	??_C@_0BJ@NLGDDFII@PHYSICSRAYCAST_L_F_F_F_F@	; `string'
PUBLIC	??_C@_0CA@DNGGCPCO@PHYSICSRAYCASTGROUP_L_L_F_F_F_F@ ; `string'
PUBLIC	??_C@_0CD@CIEIMFM@PHYSICSRAYCASTCATEGORY_L_L_F_F_@ ; `string'
PUBLIC	??_C@_0CA@ILJPHDMB@SPRITERAYCASTSINGLE_L_L_F_F_F_F@ ; `string'
PUBLIC	??_C@_0BI@IENBFHIG@SPRITERAYCAST_L_F_F_F_F@	; `string'
PUBLIC	??_C@_0BP@NBAMLOKC@SPRITERAYCASTGROUP_L_L_F_F_F_F@ ; `string'
PUBLIC	??_C@_0CC@CPJGFNEJ@SPRITERAYCASTCATEGORY_L_L_F_F_F@ ; `string'
PUBLIC	??_C@_0BF@CLEBJKEL@GETRAYCASTSPRITE_P_0@	; `string'
PUBLIC	??_C@_0BH@GFBGOPG@GETRAYCASTSPRITEID_L_0@	; `string'
PUBLIC	??_C@_0BA@CKOLLJCI@GETRAYCASTX_F_0@		; `string'
PUBLIC	??_C@_0BA@OBLHGKIN@GETRAYCASTY_F_0@		; `string'
PUBLIC	??_C@_0BG@JMDKCLJP@GETRAYCASTNORMALX_F_0@	; `string'
PUBLIC	??_C@_0BG@FHGGPIDK@GETRAYCASTNORMALY_F_0@	; `string'
PUBLIC	??_C@_0BH@JJCNDENE@GETRAYCASTFRACTION_F_0@	; `string'
PUBLIC	??_C@_0BL@OIHNMCDB@GETSPRITEINBOX_L_L_F_F_F_F@	; `string'
PUBLIC	??_C@_0BM@GCBGEHIC@GETSPRITEINCIRCLE_L_L_F_F_F@	; `string'
PUBLIC	??_C@_0BJ@MNFGHLIF@GETSPRITECOLLISION_L_L_L@	; `string'
PUBLIC	??_C@_0BI@JHNJEHPF@GETSPRITEDISTANCE_F_L_L@	; `string'
PUBLIC	??_C@_0BN@LLECPCLE@GETSPRITEDISTANCEPOINT1X_F_0@ ; `string'
